
kernel:     file format elf32-tradlittlemips

Disassembly of section .text:

a0800200 <_start>:
a0800200:	27bdffd8 	addiu	sp,sp,-40
a0800204:	afbf0024 	sw	ra,36(sp)
a0800208:	afb40020 	sw	s4,32(sp)
a080020c:	afb3001c 	sw	s3,28(sp)
a0800210:	afb20018 	sw	s2,24(sp)
a0800214:	afb10014 	sw	s1,20(sp)
a0800218:	afb00010 	sw	s0,16(sp)
a080021c:	0c20024a 	jal	a0800928 <asm_start>
a0800220:	3c14a080 	lui	s4,0xa080
a0800224:	00002821 	move	a1,zero
a0800228:	24060050 	li	a2,80
a080022c:	2407001e 	li	a3,30
a0800230:	0c200af7 	jal	a0802bdc <clear_screen>
a0800234:	00002021 	move	a0,zero
a0800238:	0c200b64 	jal	a0802d90 <queue_init>
a080023c:	26843720 	addiu	a0,s4,14112
a0800240:	3c04a080 	lui	a0,0xa080
a0800244:	0c200b64 	jal	a0802d90 <queue_init>
a0800248:	24843728 	addiu	a0,a0,14120
a080024c:	3c02a080 	lui	v0,0xa080
a0800250:	24423730 	addiu	v0,v0,14128
a0800254:	3c03a080 	lui	v1,0xa080
a0800258:	ac623710 	sw	v0,14096(v1)
a080025c:	3c04a080 	lui	a0,0xa080
a0800260:	3c02a080 	lui	v0,0xa080
a0800264:	24933640 	addiu	s3,a0,13888
a0800268:	245038d8 	addiu	s0,v0,14552
a080026c:	00008821 	move	s1,zero
a0800270:	34128001 	li	s2,0x8001
a0800274:	8e630004 	lw	v1,4(s3)
a0800278:	8e640000 	lw	a0,0(s3)
a080027c:	ae110148 	sw	s1,328(s0)
a0800280:	38620001 	xori	v0,v1,0x1
a0800284:	0002102b 	sltu	v0,zero,v0
a0800288:	ae020140 	sw	v0,320(s0)
a080028c:	ae03014c 	sw	v1,332(s0)
a0800290:	00001021 	move	v0,zero
a0800294:	00001821 	move	v1,zero
a0800298:	ae040144 	sw	a0,324(s0)
a080029c:	ae03015c 	sw	v1,348(s0)
a08002a0:	ae020158 	sw	v0,344(s0)
a08002a4:	ae000150 	sw	zero,336(s0)
a08002a8:	ae000154 	sw	zero,340(s0)
a08002ac:	ae000000 	sw	zero,0(s0)
a08002b0:	0c200114 	jal	a0800450 <stack_new>
a08002b4:	ae000004 	sw	zero,4(s0)
a08002b8:	8e630000 	lw	v1,0(s3)
a08002bc:	8e04014c 	lw	a0,332(s0)
a08002c0:	ae02007c 	sw	v0,124(s0)
a08002c4:	14800058 	bnez	a0,a0800428 <_start+0x228>
a08002c8:	ae030084 	sw	v1,132(s0)
a08002cc:	ae120088 	sw	s2,136(s0)
a08002d0:	ae120124 	sw	s2,292(s0)
a08002d4:	02002821 	move	a1,s0
a08002d8:	26310001 	addiu	s1,s1,1
a08002dc:	0c200b73 	jal	a0802dcc <enqueue>
a08002e0:	26843720 	addiu	a0,s4,14112
a08002e4:	2a220004 	slti	v0,s1,4
a08002e8:	26100168 	addiu	s0,s0,360
a08002ec:	1440ffe1 	bnez	v0,a0800274 <_start+0x74>
a08002f0:	26730008 	addiu	s3,s3,8
a08002f4:	3c06a080 	lui	a2,0xa080
a08002f8:	24c538b0 	addiu	a1,a2,14512
a08002fc:	3c02a080 	lui	v0,0xa080
a0800300:	24420504 	addiu	v0,v0,1284
a0800304:	00a02021 	move	a0,a1
a0800308:	24030008 	li	v1,8
a080030c:	2463ffff 	addiu	v1,v1,-1
a0800310:	ac820000 	sw	v0,0(a0)
a0800314:	0461fffd 	bgez	v1,a080030c <_start+0x10c>
a0800318:	24840004 	addiu	a0,a0,4
a080031c:	3c02a080 	lui	v0,0xa080
a0800320:	244224b8 	addiu	v0,v0,9400
a0800324:	acc238b0 	sw	v0,14512(a2)
a0800328:	3c03a080 	lui	v1,0xa080
a080032c:	3c02a080 	lui	v0,0xa080
a0800330:	2463072c 	addiu	v1,v1,1836
a0800334:	244224dc 	addiu	v0,v0,9436
a0800338:	aca30020 	sw	v1,32(a1)
a080033c:	aca20004 	sw	v0,4(a1)
a0800340:	3c03a080 	lui	v1,0xa080
a0800344:	3c02a080 	lui	v0,0xa080
a0800348:	24632670 	addiu	v1,v1,9840
a080034c:	244226a4 	addiu	v0,v0,9892
a0800350:	aca30008 	sw	v1,8(a1)
a0800354:	aca2000c 	sw	v0,12(a1)
a0800358:	3c03a080 	lui	v1,0xa080
a080035c:	3c02a080 	lui	v0,0xa080
a0800360:	246326ac 	addiu	v1,v1,9900
a0800364:	2442236c 	addiu	v0,v0,9068
a0800368:	aca30010 	sw	v1,16(a1)
a080036c:	aca20014 	sw	v0,20(a1)
a0800370:	3c03a080 	lui	v1,0xa080
a0800374:	3c02a080 	lui	v0,0xa080
a0800378:	24630678 	addiu	v1,v1,1656
a080037c:	244206fc 	addiu	v0,v0,1788
a0800380:	aca30018 	sw	v1,24(a1)
a0800384:	0c200b84 	jal	a0802e10 <init_interrupts>
a0800388:	aca2001c 	sw	v0,28(a1)
a080038c:	0c20083c 	jal	a08020f0 <get_timer>
a0800390:	00000000 	nop
a0800394:	0c200b4c 	jal	a0802d30 <srand>
a0800398:	00402021 	move	a0,v0
a080039c:	0c2003d4 	jal	a0800f50 <enter_critical>
a08003a0:	00000000 	nop
a08003a4:	0c2001d8 	jal	a0800760 <scheduler_entry>
a08003a8:	00000000 	nop
a08003ac:	3c06a080 	lui	a2,0xa080
a08003b0:	24c633c8 	addiu	a2,a2,13256
a08003b4:	00002021 	move	a0,zero
a08003b8:	0c200a09 	jal	a0802824 <print_str>
a08003bc:	00002821 	move	a1,zero
a08003c0:	3c06a080 	lui	a2,0xa080
a08003c4:	24c63414 	addiu	a2,a2,13332
a08003c8:	00002021 	move	a0,zero
a08003cc:	0c200a09 	jal	a0802824 <print_str>
a08003d0:	24050013 	li	a1,19
a08003d4:	3c06a080 	lui	a2,0xa080
a08003d8:	24c633f8 	addiu	a2,a2,13304
a08003dc:	24040001 	li	a0,1
a08003e0:	0c200a09 	jal	a0802824 <print_str>
a08003e4:	00002821 	move	a1,zero
a08003e8:	3c06a080 	lui	a2,0xa080
a08003ec:	24c63400 	addiu	a2,a2,13312
a08003f0:	24040001 	li	a0,1
a08003f4:	0c200a09 	jal	a0802824 <print_str>
a08003f8:	24050006 	li	a1,6
a08003fc:	3c06a080 	lui	a2,0xa080
a0800400:	24c6340c 	addiu	a2,a2,13324
a0800404:	24040002 	li	a0,2
a0800408:	0c200a09 	jal	a0802824 <print_str>
a080040c:	00002821 	move	a1,zero
a0800410:	24040002 	li	a0,2
a0800414:	24050006 	li	a1,6
a0800418:	0c200aa6 	jal	a0802a98 <print_int>
a080041c:	24060048 	li	a2,72
a0800420:	08200108 	j	a0800420 <_start+0x220>
a0800424:	00000000 	nop
a0800428:	0c200114 	jal	a0800450 <stack_new>
a080042c:	00000000 	nop
a0800430:	8e630000 	lw	v1,0(s3)
a0800434:	ae020118 	sw	v0,280(s0)
a0800438:	ae120088 	sw	s2,136(s0)
a080043c:	ae030138 	sw	v1,312(s0)
a0800440:	ae030120 	sw	v1,288(s0)
a0800444:	ae120124 	sw	s2,292(s0)
a0800448:	082000b5 	j	a08002d4 <_start+0xd4>
a080044c:	ae03009c 	sw	v1,156(s0)

a0800450 <stack_new>:
a0800450:	27bdffe8 	addiu	sp,sp,-24
a0800454:	3c05a080 	lui	a1,0xa080
a0800458:	afbf0010 	sw	ra,16(sp)
a080045c:	8ca23660 	lw	v0,13920(a1)
a0800460:	3c040001 	lui	a0,0x1
a0800464:	3c03a100 	lui	v1,0xa100
a0800468:	00441021 	addu	v0,v0,a0
a080046c:	0062182b 	sltu	v1,v1,v0
a0800470:	14600005 	bnez	v1,a0800488 <stack_new+0x38>
a0800474:	aca23660 	sw	v0,13920(a1)
a0800478:	8ca23660 	lw	v0,13920(a1)
a080047c:	8fbf0010 	lw	ra,16(sp)
a0800480:	03e00008 	jr	ra
a0800484:	27bd0018 	addiu	sp,sp,24
a0800488:	3c06a080 	lui	a2,0xa080
a080048c:	24c633c8 	addiu	a2,a2,13256
a0800490:	00002021 	move	a0,zero
a0800494:	0c200a09 	jal	a0802824 <print_str>
a0800498:	00002821 	move	a1,zero
a080049c:	3c06a080 	lui	a2,0xa080
a08004a0:	24c633dc 	addiu	a2,a2,13276
a08004a4:	00002021 	move	a0,zero
a08004a8:	0c200a09 	jal	a0802824 <print_str>
a08004ac:	24050013 	li	a1,19
a08004b0:	3c06a080 	lui	a2,0xa080
a08004b4:	24c633f8 	addiu	a2,a2,13304
a08004b8:	24040001 	li	a0,1
a08004bc:	0c200a09 	jal	a0802824 <print_str>
a08004c0:	00002821 	move	a1,zero
a08004c4:	3c06a080 	lui	a2,0xa080
a08004c8:	24c63400 	addiu	a2,a2,13312
a08004cc:	24040001 	li	a0,1
a08004d0:	0c200a09 	jal	a0802824 <print_str>
a08004d4:	24050006 	li	a1,6
a08004d8:	3c06a080 	lui	a2,0xa080
a08004dc:	24c6340c 	addiu	a2,a2,13324
a08004e0:	24040002 	li	a0,2
a08004e4:	0c200a09 	jal	a0802824 <print_str>
a08004e8:	00002821 	move	a1,zero
a08004ec:	24040002 	li	a0,2
a08004f0:	24050006 	li	a1,6
a08004f4:	0c200aa6 	jal	a0802a98 <print_int>
a08004f8:	24060050 	li	a2,80
a08004fc:	0820013f 	j	a08004fc <stack_new+0xac>
a0800500:	00000000 	nop

a0800504 <invalid_syscall>:
a0800504:	3c06a080 	lui	a2,0xa080
a0800508:	27bdffe8 	addiu	sp,sp,-24
a080050c:	24c633c8 	addiu	a2,a2,13256
a0800510:	00002021 	move	a0,zero
a0800514:	afbf0010 	sw	ra,16(sp)
a0800518:	0c200a09 	jal	a0802824 <print_str>
a080051c:	00002821 	move	a1,zero
a0800520:	3c06a080 	lui	a2,0xa080
a0800524:	24c6341c 	addiu	a2,a2,13340
a0800528:	00002021 	move	a0,zero
a080052c:	0c200a09 	jal	a0802824 <print_str>
a0800530:	24050013 	li	a1,19
a0800534:	3c06a080 	lui	a2,0xa080
a0800538:	24c633f8 	addiu	a2,a2,13304
a080053c:	24040001 	li	a0,1
a0800540:	0c200a09 	jal	a0802824 <print_str>
a0800544:	00002821 	move	a1,zero
a0800548:	3c06a080 	lui	a2,0xa080
a080054c:	24c63400 	addiu	a2,a2,13312
a0800550:	24040001 	li	a0,1
a0800554:	0c200a09 	jal	a0802824 <print_str>
a0800558:	24050006 	li	a1,6
a080055c:	3c06a080 	lui	a2,0xa080
a0800560:	24c6340c 	addiu	a2,a2,13324
a0800564:	24040002 	li	a0,2
a0800568:	0c200a09 	jal	a0802824 <print_str>
a080056c:	00002821 	move	a1,zero
a0800570:	24040002 	li	a0,2
a0800574:	24050006 	li	a1,6
a0800578:	0c200aa6 	jal	a0802a98 <print_int>
a080057c:	24060090 	li	a2,144
a0800580:	08200160 	j	a0800580 <invalid_syscall+0x7c>
a0800584:	00000000 	nop

a0800588 <print_status>:
a0800588:	3c06a080 	lui	a2,0xa080
a080058c:	27bdffc0 	addiu	sp,sp,-64
a0800590:	24c6345c 	addiu	a2,a2,13404
a0800594:	24040009 	li	a0,9
a0800598:	24050006 	li	a1,6
a080059c:	afbf0038 	sw	ra,56(sp)
a08005a0:	afb50034 	sw	s5,52(sp)
a08005a4:	afb40030 	sw	s4,48(sp)
a08005a8:	afb3002c 	sw	s3,44(sp)
a08005ac:	afb20028 	sw	s2,40(sp)
a08005b0:	afb10024 	sw	s1,36(sp)
a08005b4:	0c200489 	jal	a0801224 <printf>
a08005b8:	afb00020 	sw	s0,32(sp)
a08005bc:	3c06a080 	lui	a2,0xa080
a08005c0:	2404000b 	li	a0,11
a08005c4:	24c63478 	addiu	a2,a2,13432
a08005c8:	0c200489 	jal	a0801224 <printf>
a08005cc:	24050001 	li	a1,1
a08005d0:	3c02a080 	lui	v0,0xa080
a08005d4:	3c03a080 	lui	v1,0xa080
a08005d8:	24543664 	addiu	s4,v0,13924
a08005dc:	247038d8 	addiu	s0,v1,14552
a08005e0:	00008821 	move	s1,zero
a08005e4:	2404000d 	li	a0,13
a08005e8:	3c13a080 	lui	s3,0xa080
a08005ec:	3c12a080 	lui	s2,0xa080
a08005f0:	3c15a080 	lui	s5,0xa080
a08005f4:	8e02014c 	lw	v0,332(s0)
a08005f8:	26310001 	addiu	s1,s1,1
a08005fc:	24050001 	li	a1,1
a0800600:	26663490 	addiu	a2,s3,13456
a0800604:	8e070148 	lw	a3,328(s0)
a0800608:	10400002 	beqz	v0,a0800614 <print_status+0x8c>
a080060c:	2643349c 	addiu	v1,s2,13468
a0800610:	26a334a4 	addiu	v1,s5,13476
a0800614:	8e020150 	lw	v0,336(s0)
a0800618:	afa30010 	sw	v1,16(sp)
a080061c:	8e080154 	lw	t0,340(s0)
a0800620:	00021080 	sll	v0,v0,0x2
a0800624:	00541021 	addu	v0,v0,s4
a0800628:	8c430000 	lw	v1,0(v0)
a080062c:	afa80018 	sw	t0,24(sp)
a0800630:	26100168 	addiu	s0,s0,360
a0800634:	0c200489 	jal	a0801224 <printf>
a0800638:	afa30014 	sw	v1,20(sp)
a080063c:	2624000d 	addiu	a0,s1,13
a0800640:	2a220004 	slti	v0,s1,4
a0800644:	10400003 	beqz	v0,a0800654 <print_status+0xcc>
a0800648:	28830019 	slti	v1,a0,25
a080064c:	5460ffea 	bnezl	v1,a08005f8 <print_status+0x70>
a0800650:	8e02014c 	lw	v0,332(s0)
a0800654:	8fbf0038 	lw	ra,56(sp)
a0800658:	8fb50034 	lw	s5,52(sp)
a080065c:	8fb40030 	lw	s4,48(sp)
a0800660:	8fb3002c 	lw	s3,44(sp)
a0800664:	8fb20028 	lw	s2,40(sp)
a0800668:	8fb10024 	lw	s1,36(sp)
a080066c:	8fb00020 	lw	s0,32(sp)
a0800670:	03e00008 	jr	ra
a0800674:	27bd0040 	addiu	sp,sp,64

a0800678 <do_shutdown>:
a0800678:	3c06a080 	lui	a2,0xa080
a080067c:	27bdffe8 	addiu	sp,sp,-24
a0800680:	24c633c8 	addiu	a2,a2,13256
a0800684:	00002021 	move	a0,zero
a0800688:	afbf0010 	sw	ra,16(sp)
a080068c:	0c200a09 	jal	a0802824 <print_str>
a0800690:	00002821 	move	a1,zero
a0800694:	3c06a080 	lui	a2,0xa080
a0800698:	24c634ac 	addiu	a2,a2,13484
a080069c:	00002021 	move	a0,zero
a08006a0:	0c200a09 	jal	a0802824 <print_str>
a08006a4:	24050013 	li	a1,19
a08006a8:	3c06a080 	lui	a2,0xa080
a08006ac:	24c633f8 	addiu	a2,a2,13304
a08006b0:	24040001 	li	a0,1
a08006b4:	0c200a09 	jal	a0802824 <print_str>
a08006b8:	00002821 	move	a1,zero
a08006bc:	3c06a080 	lui	a2,0xa080
a08006c0:	24c63400 	addiu	a2,a2,13312
a08006c4:	24040001 	li	a0,1
a08006c8:	0c200a09 	jal	a0802824 <print_str>
a08006cc:	24050006 	li	a1,6
a08006d0:	3c06a080 	lui	a2,0xa080
a08006d4:	24c6340c 	addiu	a2,a2,13324
a08006d8:	24040002 	li	a0,2
a08006dc:	0c200a09 	jal	a0802824 <print_str>
a08006e0:	00002821 	move	a1,zero
a08006e4:	24040002 	li	a0,2
a08006e8:	24050006 	li	a1,6
a08006ec:	0c200aa6 	jal	a0802a98 <print_int>
a08006f0:	240600c7 	li	a2,199
a08006f4:	082001bd 	j	a08006f4 <do_shutdown+0x7c>
a08006f8:	00000000 	nop

a08006fc <do_write_serial>:
a08006fc:	3402c350 	li	v0,0xc350
a0800700:	2403ffff 	li	v1,-1
a0800704:	2442ffeb 	addiu	v0,v0,-21
a0800708:	1443ffff 	bne	v0,v1,a0800708 <do_write_serial+0xc>
a080070c:	2442ffeb 	addiu	v0,v0,-21
a0800710:	3c02bfe4 	lui	v0,0xbfe4
a0800714:	34428000 	ori	v0,v0,0x8000
a0800718:	03e00008 	jr	ra
a080071c:	a0440000 	sb	a0,0(v0)

a0800720 <printcharc>:
a0800720:	00042600 	sll	a0,a0,0x18
a0800724:	082001bf 	j	a08006fc <do_write_serial>
a0800728:	00042603 	sra	a0,a0,0x18

a080072c <print_char>:
a080072c:	27bdffe8 	addiu	sp,sp,-24
a0800730:	afbf0014 	sw	ra,20(sp)
a0800734:	afb00010 	sw	s0,16(sp)
a0800738:	0c200ad8 	jal	a0802b60 <print_location>
a080073c:	00068600 	sll	s0,a2,0x18
a0800740:	3c03bfe4 	lui	v1,0xbfe4
a0800744:	00108603 	sra	s0,s0,0x18
a0800748:	34638000 	ori	v1,v1,0x8000
a080074c:	a0700000 	sb	s0,0(v1)
a0800750:	8fbf0014 	lw	ra,20(sp)
a0800754:	8fb00010 	lw	s0,16(sp)
a0800758:	03e00008 	jr	ra
a080075c:	27bd0018 	addiu	sp,sp,24

a0800760 <scheduler_entry>:
a0800760:	3c1ba080 	lui	k1,0xa080
a0800764:	277b3710 	addiu	k1,k1,14096
a0800768:	8f7a0000 	lw	k0,0(k1)
a080076c:	235a0008 	addi	k0,k0,8
a0800770:	af410004 	sw	at,4(k0)
a0800774:	af420008 	sw	v0,8(k0)
a0800778:	af43000c 	sw	v1,12(k0)
a080077c:	af440010 	sw	a0,16(k0)
a0800780:	af450014 	sw	a1,20(k0)
a0800784:	af460018 	sw	a2,24(k0)
a0800788:	af47001c 	sw	a3,28(k0)
a080078c:	af480020 	sw	t0,32(k0)
a0800790:	af490024 	sw	t1,36(k0)
a0800794:	af4a0028 	sw	t2,40(k0)
a0800798:	af4b002c 	sw	t3,44(k0)
a080079c:	af4c0030 	sw	t4,48(k0)
a08007a0:	af4d0034 	sw	t5,52(k0)
a08007a4:	af4e0038 	sw	t6,56(k0)
a08007a8:	af4f003c 	sw	t7,60(k0)
a08007ac:	af500040 	sw	s0,64(k0)
a08007b0:	af510044 	sw	s1,68(k0)
a08007b4:	af520048 	sw	s2,72(k0)
a08007b8:	af53004c 	sw	s3,76(k0)
a08007bc:	af540050 	sw	s4,80(k0)
a08007c0:	af550054 	sw	s5,84(k0)
a08007c4:	af560058 	sw	s6,88(k0)
a08007c8:	af57005c 	sw	s7,92(k0)
a08007cc:	af580060 	sw	t8,96(k0)
a08007d0:	af590064 	sw	t9,100(k0)
a08007d4:	af5c0070 	sw	gp,112(k0)
a08007d8:	af5d0074 	sw	sp,116(k0)
a08007dc:	af5e0040 	sw	s8,64(k0)
a08007e0:	af5f007c 	sw	ra,124(k0)
a08007e4:	401b6000 	mfc0	k1,$12
a08007e8:	00000000 	nop
a08007ec:	af5b0080 	sw	k1,128(k0)
a08007f0:	0000d810 	mfhi	k1
a08007f4:	af5b0084 	sw	k1,132(k0)
a08007f8:	0000d812 	mflo	k1
a08007fc:	af5b0088 	sw	k1,136(k0)
a0800800:	401b4000 	mfc0	k1,$8
a0800804:	00000000 	nop
a0800808:	af5b008c 	sw	k1,140(k0)
a080080c:	401b6800 	mfc0	k1,$13
a0800810:	00000000 	nop
a0800814:	af5b0090 	sw	k1,144(k0)
a0800818:	401b7000 	mfc0	k1,$14
a080081c:	00000000 	nop
a0800820:	af5b0094 	sw	k1,148(k0)
a0800824:	0c20087c 	jal	a08021f0 <scheduler>
a0800828:	00000000 	nop
a080082c:	00000000 	nop
a0800830:	3c1aa080 	lui	k0,0xa080
a0800834:	275a368c 	addiu	k0,k0,13964
a0800838:	8f5b0000 	lw	k1,0(k0)
a080083c:	237bffff 	addi	k1,k1,-1
a0800840:	17600202 	bnez	k1,a080104c <panicl>
a0800844:	00000000 	nop
a0800848:	00000000 	nop
a080084c:	af5b0000 	sw	k1,0(k0)
a0800850:	3c1ba080 	lui	k1,0xa080
a0800854:	277b3710 	addiu	k1,k1,14096
a0800858:	8f7a0000 	lw	k0,0(k1)
a080085c:	235a0008 	addi	k0,k0,8
a0800860:	8f410004 	lw	at,4(k0)
a0800864:	8f420008 	lw	v0,8(k0)
a0800868:	8f43000c 	lw	v1,12(k0)
a080086c:	8f440010 	lw	a0,16(k0)
a0800870:	8f450014 	lw	a1,20(k0)
a0800874:	8f460018 	lw	a2,24(k0)
a0800878:	8f47001c 	lw	a3,28(k0)
a080087c:	8f480020 	lw	t0,32(k0)
a0800880:	8f490024 	lw	t1,36(k0)
a0800884:	8f4a0028 	lw	t2,40(k0)
a0800888:	8f4b002c 	lw	t3,44(k0)
a080088c:	8f4c0030 	lw	t4,48(k0)
a0800890:	8f4d0034 	lw	t5,52(k0)
a0800894:	8f4e0038 	lw	t6,56(k0)
a0800898:	8f4f003c 	lw	t7,60(k0)
a080089c:	8f500040 	lw	s0,64(k0)
a08008a0:	8f510044 	lw	s1,68(k0)
a08008a4:	8f520048 	lw	s2,72(k0)
a08008a8:	8f53004c 	lw	s3,76(k0)
a08008ac:	8f540050 	lw	s4,80(k0)
a08008b0:	8f550054 	lw	s5,84(k0)
a08008b4:	8f560058 	lw	s6,88(k0)
a08008b8:	8f57005c 	lw	s7,92(k0)
a08008bc:	8f580060 	lw	t8,96(k0)
a08008c0:	8f590064 	lw	t9,100(k0)
a08008c4:	8f5c0070 	lw	gp,112(k0)
a08008c8:	8f5d0074 	lw	sp,116(k0)
a08008cc:	8f5e0078 	lw	s8,120(k0)
a08008d0:	8f5f007c 	lw	ra,124(k0)
a08008d4:	8f5b0080 	lw	k1,128(k0)
a08008d8:	409b6000 	mtc0	k1,$12
a08008dc:	8f5b0084 	lw	k1,132(k0)
a08008e0:	03600011 	mthi	k1
a08008e4:	8f5b0088 	lw	k1,136(k0)
a08008e8:	03600013 	mtlo	k1
a08008ec:	8f5b008c 	lw	k1,140(k0)
a08008f0:	409b4000 	mtc0	k1,$8
a08008f4:	8f5b0090 	lw	k1,144(k0)
a08008f8:	409b6800 	mtc0	k1,$13
a08008fc:	8f5b0094 	lw	k1,148(k0)
a0800900:	409b7000 	mtc0	k1,$14
a0800904:	00000000 	nop
a0800908:	401a6000 	mfc0	k0,$12
a080090c:	3c1b1000 	lui	k1,0x1000
a0800910:	377b0001 	ori	k1,k1,0x1
a0800914:	035bd025 	or	k0,k0,k1
a0800918:	409a6000 	mtc0	k0,$12
a080091c:	03e00008 	jr	ra
a0800920:	00000000 	nop
a0800924:	00000000 	nop

a0800928 <asm_start>:
a0800928:	40806000 	mtc0	zero,$12
a080092c:	00000000 	nop
a0800930:	40809000 	mtc0	zero,$18
a0800934:	00000000 	nop
a0800938:	40809800 	mtc0	zero,$19
a080093c:	00000000 	nop
a0800940:	40088000 	mfc0	t0,$16
a0800944:	2401fff8 	li	at,-8
a0800948:	01014024 	and	t0,t0,at
a080094c:	35080002 	ori	t0,t0,0x2
a0800950:	40888000 	mtc0	t0,$16
a0800954:	03e00008 	jr	ra
a0800958:	00000000 	nop

a080095c <reset_timer>:
a080095c:	40804800 	mtc0	zero,$9
a0800960:	00000000 	nop
a0800964:	40845800 	mtc0	a0,$11
a0800968:	03e00008 	jr	ra
a080096c:	00000000 	nop

a0800970 <general_exception_handler>:
a0800970:	401a6000 	mfc0	k0,$12
a0800974:	3c1b1000 	lui	k1,0x1000
a0800978:	377b0001 	ori	k1,k1,0x1
a080097c:	035bd025 	or	k0,k0,k1
a0800980:	3b5a0001 	xori	k0,k0,0x1
a0800984:	409a6000 	mtc0	k0,$12
a0800988:	401a6800 	mfc0	k0,$13
a080098c:	335a007c 	andi	k0,k0,0x7c
a0800990:	3c1ba080 	lui	k1,0xa080
a0800994:	277b3e78 	addiu	k1,k1,15992
a0800998:	035bd020 	add	k0,k0,k1
a080099c:	8f5a0000 	lw	k0,0(k0)
a08009a0:	03400008 	jr	k0
a08009a4:	00000000 	nop

a08009a8 <return_from_exception>:
a08009a8:	401a6000 	mfc0	k0,$12
a08009ac:	3c1b1000 	lui	k1,0x1000
a08009b0:	377b0001 	ori	k1,k1,0x1
a08009b4:	035bd025 	or	k0,k0,k1
a08009b8:	409a6000 	mtc0	k0,$12
a08009bc:	42000018 	eret

a08009c0 <simple_handler>:
a08009c0:	3c1ba080 	lui	k1,0xa080
a08009c4:	277b3710 	addiu	k1,k1,14096
a08009c8:	8f7a0000 	lw	k0,0(k1)
a08009cc:	235a0008 	addi	k0,k0,8
a08009d0:	af410004 	sw	at,4(k0)
a08009d4:	af420008 	sw	v0,8(k0)
a08009d8:	af43000c 	sw	v1,12(k0)
a08009dc:	af440010 	sw	a0,16(k0)
a08009e0:	af450014 	sw	a1,20(k0)
a08009e4:	af460018 	sw	a2,24(k0)
a08009e8:	af47001c 	sw	a3,28(k0)
a08009ec:	af480020 	sw	t0,32(k0)
a08009f0:	af490024 	sw	t1,36(k0)
a08009f4:	af4a0028 	sw	t2,40(k0)
a08009f8:	af4b002c 	sw	t3,44(k0)
a08009fc:	af4c0030 	sw	t4,48(k0)
a0800a00:	af4d0034 	sw	t5,52(k0)
a0800a04:	af4e0038 	sw	t6,56(k0)
a0800a08:	af4f003c 	sw	t7,60(k0)
a0800a0c:	af500040 	sw	s0,64(k0)
a0800a10:	af510044 	sw	s1,68(k0)
a0800a14:	af520048 	sw	s2,72(k0)
a0800a18:	af53004c 	sw	s3,76(k0)
a0800a1c:	af540050 	sw	s4,80(k0)
a0800a20:	af550054 	sw	s5,84(k0)
a0800a24:	af560058 	sw	s6,88(k0)
a0800a28:	af57005c 	sw	s7,92(k0)
a0800a2c:	af580060 	sw	t8,96(k0)
a0800a30:	af590064 	sw	t9,100(k0)
a0800a34:	af5c0070 	sw	gp,112(k0)
a0800a38:	af5d0074 	sw	sp,116(k0)
a0800a3c:	af5e0040 	sw	s8,64(k0)
a0800a40:	af5f007c 	sw	ra,124(k0)
a0800a44:	401b6000 	mfc0	k1,$12
a0800a48:	af5b0080 	sw	k1,128(k0)
a0800a4c:	0000d810 	mfhi	k1
a0800a50:	af5b0084 	sw	k1,132(k0)
a0800a54:	0000d812 	mflo	k1
a0800a58:	af5b0088 	sw	k1,136(k0)
a0800a5c:	401b4000 	mfc0	k1,$8
a0800a60:	af5b008c 	sw	k1,140(k0)
a0800a64:	401b6800 	mfc0	k1,$13
a0800a68:	af5b0090 	sw	k1,144(k0)
a0800a6c:	401b7000 	mfc0	k1,$14
a0800a70:	af5b0094 	sw	k1,148(k0)
a0800a74:	401a6800 	mfc0	k0,$13
a0800a78:	335aff00 	andi	k0,k0,0xff00
a0800a7c:	735ad020 	0x735ad020
a0800a80:	3b5a0017 	xori	k0,k0,0x17
a0800a84:	03402020 	add	a0,k0,zero
a0800a88:	401a6800 	mfc0	k0,$13
a0800a8c:	335a007c 	andi	k0,k0,0x7c
a0800a90:	001ad082 	srl	k0,k0,0x2
a0800a94:	03402820 	add	a1,k0,zero
a0800a98:	0c200bba 	jal	a0802ee8 <c_simple_handler>
a0800a9c:	00000000 	nop
a0800aa0:	401a6800 	mfc0	k0,$13
a0800aa4:	335bff00 	andi	k1,k0,0xff00
a0800aa8:	035bd026 	xor	k0,k0,k1
a0800aac:	409a6800 	mtc0	k0,$13
a0800ab0:	3c1aa080 	lui	k0,0xa080
a0800ab4:	275a368c 	addiu	k0,k0,13964
a0800ab8:	8f5b0000 	lw	k1,0(k0)
a0800abc:	237bffff 	addi	k1,k1,-1
a0800ac0:	17600162 	bnez	k1,a080104c <panicl>
a0800ac4:	00000000 	nop
a0800ac8:	00000000 	nop
a0800acc:	af5b0000 	sw	k1,0(k0)
a0800ad0:	3c1ba080 	lui	k1,0xa080
a0800ad4:	277b3710 	addiu	k1,k1,14096
a0800ad8:	8f7a0000 	lw	k0,0(k1)
a0800adc:	235a0008 	addi	k0,k0,8
a0800ae0:	8f410004 	lw	at,4(k0)
a0800ae4:	8f420008 	lw	v0,8(k0)
a0800ae8:	8f43000c 	lw	v1,12(k0)
a0800aec:	8f440010 	lw	a0,16(k0)
a0800af0:	8f450014 	lw	a1,20(k0)
a0800af4:	8f460018 	lw	a2,24(k0)
a0800af8:	8f47001c 	lw	a3,28(k0)
a0800afc:	8f480020 	lw	t0,32(k0)
a0800b00:	8f490024 	lw	t1,36(k0)
a0800b04:	8f4a0028 	lw	t2,40(k0)
a0800b08:	8f4b002c 	lw	t3,44(k0)
a0800b0c:	8f4c0030 	lw	t4,48(k0)
a0800b10:	8f4d0034 	lw	t5,52(k0)
a0800b14:	8f4e0038 	lw	t6,56(k0)
a0800b18:	8f4f003c 	lw	t7,60(k0)
a0800b1c:	8f500040 	lw	s0,64(k0)
a0800b20:	8f510044 	lw	s1,68(k0)
a0800b24:	8f520048 	lw	s2,72(k0)
a0800b28:	8f53004c 	lw	s3,76(k0)
a0800b2c:	8f540050 	lw	s4,80(k0)
a0800b30:	8f550054 	lw	s5,84(k0)
a0800b34:	8f560058 	lw	s6,88(k0)
a0800b38:	8f57005c 	lw	s7,92(k0)
a0800b3c:	8f580060 	lw	t8,96(k0)
a0800b40:	8f590064 	lw	t9,100(k0)
a0800b44:	8f5c0070 	lw	gp,112(k0)
a0800b48:	8f5d0074 	lw	sp,116(k0)
a0800b4c:	8f5e0078 	lw	s8,120(k0)
a0800b50:	8f5f007c 	lw	ra,124(k0)
a0800b54:	8f5b0080 	lw	k1,128(k0)
a0800b58:	409b6000 	mtc0	k1,$12
a0800b5c:	8f5b0084 	lw	k1,132(k0)
a0800b60:	03600011 	mthi	k1
a0800b64:	8f5b0088 	lw	k1,136(k0)
a0800b68:	03600013 	mtlo	k1
a0800b6c:	8f5b008c 	lw	k1,140(k0)
a0800b70:	409b4000 	mtc0	k1,$8
a0800b74:	8f5b0090 	lw	k1,144(k0)
a0800b78:	409b6800 	mtc0	k1,$13
a0800b7c:	8f5b0094 	lw	k1,148(k0)
a0800b80:	409b7000 	mtc0	k1,$14
a0800b84:	0820026a 	j	a08009a8 <return_from_exception>
a0800b88:	00000000 	nop

a0800b8c <handle_syscall>:
a0800b8c:	3c1ba080 	lui	k1,0xa080
a0800b90:	277b3710 	addiu	k1,k1,14096
a0800b94:	8f7a0000 	lw	k0,0(k1)
a0800b98:	235a00a4 	addi	k0,k0,164
a0800b9c:	af410004 	sw	at,4(k0)
a0800ba0:	af420008 	sw	v0,8(k0)
a0800ba4:	af43000c 	sw	v1,12(k0)
a0800ba8:	af440010 	sw	a0,16(k0)
a0800bac:	af450014 	sw	a1,20(k0)
a0800bb0:	af460018 	sw	a2,24(k0)
a0800bb4:	af47001c 	sw	a3,28(k0)
a0800bb8:	af480020 	sw	t0,32(k0)
a0800bbc:	af490024 	sw	t1,36(k0)
a0800bc0:	af4a0028 	sw	t2,40(k0)
a0800bc4:	af4b002c 	sw	t3,44(k0)
a0800bc8:	af4c0030 	sw	t4,48(k0)
a0800bcc:	af4d0034 	sw	t5,52(k0)
a0800bd0:	af4e0038 	sw	t6,56(k0)
a0800bd4:	af4f003c 	sw	t7,60(k0)
a0800bd8:	af500040 	sw	s0,64(k0)
a0800bdc:	af510044 	sw	s1,68(k0)
a0800be0:	af520048 	sw	s2,72(k0)
a0800be4:	af53004c 	sw	s3,76(k0)
a0800be8:	af540050 	sw	s4,80(k0)
a0800bec:	af550054 	sw	s5,84(k0)
a0800bf0:	af560058 	sw	s6,88(k0)
a0800bf4:	af57005c 	sw	s7,92(k0)
a0800bf8:	af580060 	sw	t8,96(k0)
a0800bfc:	af590064 	sw	t9,100(k0)
a0800c00:	af5c0070 	sw	gp,112(k0)
a0800c04:	af5d0074 	sw	sp,116(k0)
a0800c08:	af5e0040 	sw	s8,64(k0)
a0800c0c:	af5f007c 	sw	ra,124(k0)
a0800c10:	401b6000 	mfc0	k1,$12
a0800c14:	af5b0080 	sw	k1,128(k0)
a0800c18:	0000d810 	mfhi	k1
a0800c1c:	af5b0084 	sw	k1,132(k0)
a0800c20:	0000d812 	mflo	k1
a0800c24:	af5b0088 	sw	k1,136(k0)
a0800c28:	401b4000 	mfc0	k1,$8
a0800c2c:	af5b008c 	sw	k1,140(k0)
a0800c30:	401b6800 	mfc0	k1,$13
a0800c34:	af5b0090 	sw	k1,144(k0)
a0800c38:	401b7000 	mfc0	k1,$14
a0800c3c:	af5b0094 	sw	k1,148(k0)
a0800c40:	00c03820 	add	a3,a2,zero
a0800c44:	00a03020 	add	a2,a1,zero
a0800c48:	00802820 	add	a1,a0,zero
a0800c4c:	00402020 	add	a0,v0,zero
a0800c50:	0c200bbf 	jal	a0802efc <system_call_helper>
a0800c54:	00000000 	nop
a0800c58:	3c1aa080 	lui	k0,0xa080
a0800c5c:	275a368c 	addiu	k0,k0,13964
a0800c60:	8f5b0000 	lw	k1,0(k0)
a0800c64:	237bffff 	addi	k1,k1,-1
a0800c68:	176000f8 	bnez	k1,a080104c <panicl>
a0800c6c:	00000000 	nop
a0800c70:	00000000 	nop
a0800c74:	af5b0000 	sw	k1,0(k0)
a0800c78:	3c1ba080 	lui	k1,0xa080
a0800c7c:	277b3710 	addiu	k1,k1,14096
a0800c80:	8f7a0000 	lw	k0,0(k1)
a0800c84:	235a00a4 	addi	k0,k0,164
a0800c88:	8f410004 	lw	at,4(k0)
a0800c8c:	8f420008 	lw	v0,8(k0)
a0800c90:	8f43000c 	lw	v1,12(k0)
a0800c94:	8f440010 	lw	a0,16(k0)
a0800c98:	8f450014 	lw	a1,20(k0)
a0800c9c:	8f460018 	lw	a2,24(k0)
a0800ca0:	8f47001c 	lw	a3,28(k0)
a0800ca4:	8f480020 	lw	t0,32(k0)
a0800ca8:	8f490024 	lw	t1,36(k0)
a0800cac:	8f4a0028 	lw	t2,40(k0)
a0800cb0:	8f4b002c 	lw	t3,44(k0)
a0800cb4:	8f4c0030 	lw	t4,48(k0)
a0800cb8:	8f4d0034 	lw	t5,52(k0)
a0800cbc:	8f4e0038 	lw	t6,56(k0)
a0800cc0:	8f4f003c 	lw	t7,60(k0)
a0800cc4:	8f500040 	lw	s0,64(k0)
a0800cc8:	8f510044 	lw	s1,68(k0)
a0800ccc:	8f520048 	lw	s2,72(k0)
a0800cd0:	8f53004c 	lw	s3,76(k0)
a0800cd4:	8f540050 	lw	s4,80(k0)
a0800cd8:	8f550054 	lw	s5,84(k0)
a0800cdc:	8f560058 	lw	s6,88(k0)
a0800ce0:	8f57005c 	lw	s7,92(k0)
a0800ce4:	8f580060 	lw	t8,96(k0)
a0800ce8:	8f590064 	lw	t9,100(k0)
a0800cec:	8f5c0070 	lw	gp,112(k0)
a0800cf0:	8f5d0074 	lw	sp,116(k0)
a0800cf4:	8f5e0078 	lw	s8,120(k0)
a0800cf8:	8f5f007c 	lw	ra,124(k0)
a0800cfc:	8f5b0080 	lw	k1,128(k0)
a0800d00:	409b6000 	mtc0	k1,$12
a0800d04:	8f5b0084 	lw	k1,132(k0)
a0800d08:	03600011 	mthi	k1
a0800d0c:	8f5b0088 	lw	k1,136(k0)
a0800d10:	03600013 	mtlo	k1
a0800d14:	8f5b008c 	lw	k1,140(k0)
a0800d18:	409b4000 	mtc0	k1,$8
a0800d1c:	8f5b0090 	lw	k1,144(k0)
a0800d20:	409b6800 	mtc0	k1,$13
a0800d24:	8f5b0094 	lw	k1,148(k0)
a0800d28:	409b7000 	mtc0	k1,$14
a0800d2c:	0820026a 	j	a08009a8 <return_from_exception>
a0800d30:	00000000 	nop

a0800d34 <handle_int>:
a0800d34:	3c1ba080 	lui	k1,0xa080
a0800d38:	277b3710 	addiu	k1,k1,14096
a0800d3c:	8f7a0000 	lw	k0,0(k1)
a0800d40:	235a00a4 	addi	k0,k0,164
a0800d44:	af410004 	sw	at,4(k0)
a0800d48:	af420008 	sw	v0,8(k0)
a0800d4c:	af43000c 	sw	v1,12(k0)
a0800d50:	af440010 	sw	a0,16(k0)
a0800d54:	af450014 	sw	a1,20(k0)
a0800d58:	af460018 	sw	a2,24(k0)
a0800d5c:	af47001c 	sw	a3,28(k0)
a0800d60:	af480020 	sw	t0,32(k0)
a0800d64:	af490024 	sw	t1,36(k0)
a0800d68:	af4a0028 	sw	t2,40(k0)
a0800d6c:	af4b002c 	sw	t3,44(k0)
a0800d70:	af4c0030 	sw	t4,48(k0)
a0800d74:	af4d0034 	sw	t5,52(k0)
a0800d78:	af4e0038 	sw	t6,56(k0)
a0800d7c:	af4f003c 	sw	t7,60(k0)
a0800d80:	af500040 	sw	s0,64(k0)
a0800d84:	af510044 	sw	s1,68(k0)
a0800d88:	af520048 	sw	s2,72(k0)
a0800d8c:	af53004c 	sw	s3,76(k0)
a0800d90:	af540050 	sw	s4,80(k0)
a0800d94:	af550054 	sw	s5,84(k0)
a0800d98:	af560058 	sw	s6,88(k0)
a0800d9c:	af57005c 	sw	s7,92(k0)
a0800da0:	af580060 	sw	t8,96(k0)
a0800da4:	af590064 	sw	t9,100(k0)
a0800da8:	af5c0070 	sw	gp,112(k0)
a0800dac:	af5d0074 	sw	sp,116(k0)
a0800db0:	af5e0040 	sw	s8,64(k0)
a0800db4:	af5f007c 	sw	ra,124(k0)
a0800db8:	401b6000 	mfc0	k1,$12
a0800dbc:	af5b0080 	sw	k1,128(k0)
a0800dc0:	0000d810 	mfhi	k1
a0800dc4:	af5b0084 	sw	k1,132(k0)
a0800dc8:	0000d812 	mflo	k1
a0800dcc:	af5b0088 	sw	k1,136(k0)
a0800dd0:	401b4000 	mfc0	k1,$8
a0800dd4:	af5b008c 	sw	k1,140(k0)
a0800dd8:	401b6800 	mfc0	k1,$13
a0800ddc:	af5b0090 	sw	k1,144(k0)
a0800de0:	401b7000 	mfc0	k1,$14
a0800de4:	af5b0094 	sw	k1,148(k0)
a0800de8:	401a6800 	mfc0	k0,$13
a0800dec:	335aff00 	andi	k0,k0,0xff00
a0800df0:	335a8000 	andi	k0,k0,0x8000
a0800df4:	17400005 	bnez	k0,a0800e0c <handle_int+0xd8>
a0800df8:	00000000 	nop
a0800dfc:	00000000 	nop
a0800e00:	0820038a 	j	a0800e28 <handle_int+0xf4>
a0800e04:	00000000 	nop
a0800e08:	00000000 	nop
a0800e0c:	40804800 	mtc0	zero,$9
a0800e10:	3c1a08f0 	lui	k0,0x8f0
a0800e14:	375ad180 	ori	k0,k0,0xd180
a0800e18:	409a5800 	mtc0	k0,$11
a0800e1c:	0c200c33 	jal	a08030cc <timer_irq>
a0800e20:	00000000 	nop
a0800e24:	00000000 	nop
a0800e28:	401a6800 	mfc0	k0,$13
a0800e2c:	3c1bffff 	lui	k1,0xffff
a0800e30:	377b00ff 	ori	k1,k1,0xff
a0800e34:	035bd024 	and	k0,k0,k1
a0800e38:	409a6800 	mtc0	k0,$13
a0800e3c:	00000000 	nop
a0800e40:	3c1ba080 	lui	k1,0xa080
a0800e44:	277b3710 	addiu	k1,k1,14096
a0800e48:	8f7a0000 	lw	k0,0(k1)
a0800e4c:	235a00a4 	addi	k0,k0,164
a0800e50:	8f410004 	lw	at,4(k0)
a0800e54:	8f420008 	lw	v0,8(k0)
a0800e58:	8f43000c 	lw	v1,12(k0)
a0800e5c:	8f440010 	lw	a0,16(k0)
a0800e60:	8f450014 	lw	a1,20(k0)
a0800e64:	8f460018 	lw	a2,24(k0)
a0800e68:	8f47001c 	lw	a3,28(k0)
a0800e6c:	8f480020 	lw	t0,32(k0)
a0800e70:	8f490024 	lw	t1,36(k0)
a0800e74:	8f4a0028 	lw	t2,40(k0)
a0800e78:	8f4b002c 	lw	t3,44(k0)
a0800e7c:	8f4c0030 	lw	t4,48(k0)
a0800e80:	8f4d0034 	lw	t5,52(k0)
a0800e84:	8f4e0038 	lw	t6,56(k0)
a0800e88:	8f4f003c 	lw	t7,60(k0)
a0800e8c:	8f500040 	lw	s0,64(k0)
a0800e90:	8f510044 	lw	s1,68(k0)
a0800e94:	8f520048 	lw	s2,72(k0)
a0800e98:	8f53004c 	lw	s3,76(k0)
a0800e9c:	8f540050 	lw	s4,80(k0)
a0800ea0:	8f550054 	lw	s5,84(k0)
a0800ea4:	8f560058 	lw	s6,88(k0)
a0800ea8:	8f57005c 	lw	s7,92(k0)
a0800eac:	8f580060 	lw	t8,96(k0)
a0800eb0:	8f590064 	lw	t9,100(k0)
a0800eb4:	8f5c0070 	lw	gp,112(k0)
a0800eb8:	8f5d0074 	lw	sp,116(k0)
a0800ebc:	8f5e0078 	lw	s8,120(k0)
a0800ec0:	8f5f007c 	lw	ra,124(k0)
a0800ec4:	8f5b0080 	lw	k1,128(k0)
a0800ec8:	409b6000 	mtc0	k1,$12
a0800ecc:	8f5b0084 	lw	k1,132(k0)
a0800ed0:	03600011 	mthi	k1
a0800ed4:	8f5b0088 	lw	k1,136(k0)
a0800ed8:	03600013 	mtlo	k1
a0800edc:	8f5b008c 	lw	k1,140(k0)
a0800ee0:	409b4000 	mtc0	k1,$8
a0800ee4:	8f5b0090 	lw	k1,144(k0)
a0800ee8:	409b6800 	mtc0	k1,$13
a0800eec:	8f5b0094 	lw	k1,148(k0)
a0800ef0:	409b7000 	mtc0	k1,$14
a0800ef4:	401a6000 	mfc0	k0,$12
a0800ef8:	3c1b1000 	lui	k1,0x1000
a0800efc:	377b0001 	ori	k1,k1,0x1
a0800f00:	035bd025 	or	k0,k0,k1
a0800f04:	409a6000 	mtc0	k0,$12
a0800f08:	00000000 	nop
a0800f0c:	42000018 	eret
a0800f10:	00000000 	nop

a0800f14 <ret>:
a0800f14:	3c1aa080 	lui	k0,0xa080
a0800f18:	275a368c 	addiu	k0,k0,13964
a0800f1c:	8f5b0000 	lw	k1,0(k0)
a0800f20:	237bffff 	addi	k1,k1,-1
a0800f24:	17600049 	bnez	k1,a080104c <panicl>
a0800f28:	00000000 	nop
a0800f2c:	00000000 	nop
a0800f30:	af5b0000 	sw	k1,0(k0)
a0800f34:	42000018 	eret

a0800f38 <get_cp0_status>:
a0800f38:	40026000 	mfc0	v0,$12
a0800f3c:	03e00008 	jr	ra
a0800f40:	00000000 	nop

a0800f44 <set_cp0_status>:
a0800f44:	40846000 	mtc0	a0,$12
a0800f48:	03e00008 	jr	ra
a0800f4c:	00000000 	nop

a0800f50 <enter_critical>:
a0800f50:	401a6000 	mfc0	k0,$12
a0800f54:	3c1b1000 	lui	k1,0x1000
a0800f58:	377b0001 	ori	k1,k1,0x1
a0800f5c:	035bd025 	or	k0,k0,k1
a0800f60:	3b5a0001 	xori	k0,k0,0x1
a0800f64:	409a6000 	mtc0	k0,$12
a0800f68:	3c1aa080 	lui	k0,0xa080
a0800f6c:	275a368c 	addiu	k0,k0,13964
a0800f70:	8f5b0000 	lw	k1,0(k0)
a0800f74:	17600025 	bnez	k1,a080100c <panice>
a0800f78:	00000000 	nop
a0800f7c:	00000000 	nop
a0800f80:	237b0001 	addi	k1,k1,1
a0800f84:	af5b0000 	sw	k1,0(k0)
a0800f88:	03e00008 	jr	ra
a0800f8c:	00000000 	nop

a0800f90 <leave_critical>:
a0800f90:	3c1aa080 	lui	k0,0xa080
a0800f94:	275a368c 	addiu	k0,k0,13964
a0800f98:	8f5b0000 	lw	k1,0(k0)
a0800f9c:	237bffff 	addi	k1,k1,-1
a0800fa0:	1760002a 	bnez	k1,a080104c <panicl>
a0800fa4:	00000000 	nop
a0800fa8:	00000000 	nop
a0800fac:	af5b0000 	sw	k1,0(k0)
a0800fb0:	401a6000 	mfc0	k0,$12
a0800fb4:	3c1b1000 	lui	k1,0x1000
a0800fb8:	377b0001 	ori	k1,k1,0x1
a0800fbc:	035bd025 	or	k0,k0,k1
a0800fc0:	409a6000 	mtc0	k0,$12
a0800fc4:	03e00008 	jr	ra
a0800fc8:	00000000 	nop

a0800fcc <panic>:
a0800fcc:	401a6000 	mfc0	k0,$12
a0800fd0:	3c1b1000 	lui	k1,0x1000
a0800fd4:	377b0001 	ori	k1,k1,0x1
a0800fd8:	035bd025 	or	k0,k0,k1
a0800fdc:	3b5a0001 	xori	k0,k0,0x1
a0800fe0:	409a6000 	mtc0	k0,$12
a0800fe4:	201a2710 	addi	k0,zero,10000

a0800fe8 <P1>:
a0800fe8:	235affff 	addi	k0,k0,-1
a0800fec:	1740fffe 	bnez	k0,a0800fe8 <P1>
a0800ff0:	00000000 	nop
a0800ff4:	201a0050 	addi	k0,zero,80
a0800ff8:	3c1bbfe4 	lui	k1,0xbfe4
a0800ffc:	377b8000 	ori	k1,k1,0x8000
a0801000:	a37a0000 	sb	k0,0(k1)
a0801004:	082003f3 	j	a0800fcc <panic>
a0801008:	00000000 	nop

a080100c <panice>:
a080100c:	401a6000 	mfc0	k0,$12
a0801010:	3c1b1000 	lui	k1,0x1000
a0801014:	377b0001 	ori	k1,k1,0x1
a0801018:	035bd025 	or	k0,k0,k1
a080101c:	3b5a0001 	xori	k0,k0,0x1
a0801020:	409a6000 	mtc0	k0,$12
a0801024:	201a2710 	addi	k0,zero,10000

a0801028 <P2>:
a0801028:	235affff 	addi	k0,k0,-1
a080102c:	1740fffe 	bnez	k0,a0801028 <P2>
a0801030:	00000000 	nop
a0801034:	201a0045 	addi	k0,zero,69
a0801038:	3c1bbfe4 	lui	k1,0xbfe4
a080103c:	377b8000 	ori	k1,k1,0x8000
a0801040:	a37a0000 	sb	k0,0(k1)
a0801044:	082003f3 	j	a0800fcc <panic>
a0801048:	00000000 	nop

a080104c <panicl>:
a080104c:	401a6000 	mfc0	k0,$12
a0801050:	3c1b1000 	lui	k1,0x1000
a0801054:	377b0001 	ori	k1,k1,0x1
a0801058:	035bd025 	or	k0,k0,k1
a080105c:	3b5a0001 	xori	k0,k0,0x1
a0801060:	409a6000 	mtc0	k0,$12
a0801064:	201a2710 	addi	k0,zero,10000

a0801068 <P3>:
a0801068:	235affff 	addi	k0,k0,-1
a080106c:	1740fffe 	bnez	k0,a0801068 <P3>
a0801070:	00000000 	nop
a0801074:	201a004c 	addi	k0,zero,76
a0801078:	3c1bbfe4 	lui	k1,0xbfe4
a080107c:	377b8000 	ori	k1,k1,0x8000
a0801080:	a37a0000 	sb	k0,0(k1)
a0801084:	082003f3 	j	a0800fcc <panic>
a0801088:	00000000 	nop

a080108c <infinite_loop>:
a080108c:	08200423 	j	a080108c <infinite_loop>
a0801090:	00000000 	nop
	...

a08010a0 <printf_c>:
a08010a0:	27bdffe0 	addiu	sp,sp,-32
a08010a4:	afb10014 	sw	s1,20(sp)
a08010a8:	afb00010 	sw	s0,16(sp)
a08010ac:	afbf0018 	sw	ra,24(sp)
a08010b0:	8ca20000 	lw	v0,0(a1)
a08010b4:	00063600 	sll	a2,a2,0x18
a08010b8:	00a08021 	move	s0,a1
a08010bc:	00808821 	move	s1,a0
a08010c0:	04400030 	bltz	v0,a0801184 <printf_c+0xe4>
a08010c4:	00063603 	sra	a2,a2,0x18
a08010c8:	2402000a 	li	v0,10
a08010cc:	10c20024 	beq	a2,v0,a0801160 <printf_c+0xc0>
a08010d0:	28c2000b 	slti	v0,a2,11
a08010d4:	1440000f 	bnez	v0,a0801114 <printf_c+0x74>
a08010d8:	24020009 	li	v0,9
a08010dc:	2402000d 	li	v0,13
a08010e0:	50c20023 	beql	a2,v0,a0801170 <printf_c+0xd0>
a08010e4:	ae000000 	sw	zero,0(s0)
a08010e8:	8e240000 	lw	a0,0(s1)
a08010ec:	0c2001cb 	jal	a080072c <print_char>
a08010f0:	8e050000 	lw	a1,0(s0)
a08010f4:	8e030000 	lw	v1,0(s0)
a08010f8:	24630001 	addiu	v1,v1,1
a08010fc:	ae030000 	sw	v1,0(s0)
a0801100:	8fbf0018 	lw	ra,24(sp)
a0801104:	8fb10014 	lw	s1,20(sp)
a0801108:	8fb00010 	lw	s0,16(sp)
a080110c:	03e00008 	jr	ra
a0801110:	27bd0020 	addiu	sp,sp,32
a0801114:	54c2fff5 	bnel	a2,v0,a08010ec <printf_c+0x4c>
a0801118:	8e240000 	lw	a0,0(s1)
a080111c:	02202021 	move	a0,s1
a0801120:	02002821 	move	a1,s0
a0801124:	0c200428 	jal	a08010a0 <printf_c>
a0801128:	24060020 	li	a2,32
a080112c:	8e020000 	lw	v0,0(s0)
a0801130:	30420007 	andi	v0,v0,0x7
a0801134:	1040fff2 	beqz	v0,a0801100 <printf_c+0x60>
a0801138:	02202021 	move	a0,s1
a080113c:	02002821 	move	a1,s0
a0801140:	0c200428 	jal	a08010a0 <printf_c>
a0801144:	24060020 	li	a2,32
a0801148:	8e020000 	lw	v0,0(s0)
a080114c:	30420007 	andi	v0,v0,0x7
a0801150:	1440fff3 	bnez	v0,a0801120 <printf_c+0x80>
a0801154:	02202021 	move	a0,s1
a0801158:	08200441 	j	a0801104 <printf_c+0x64>
a080115c:	8fbf0018 	lw	ra,24(sp)
a0801160:	8e220000 	lw	v0,0(s1)
a0801164:	24420001 	addiu	v0,v0,1
a0801168:	ae220000 	sw	v0,0(s1)
a080116c:	ae000000 	sw	zero,0(s0)
a0801170:	8fbf0018 	lw	ra,24(sp)
a0801174:	8fb10014 	lw	s1,20(sp)
a0801178:	8fb00010 	lw	s0,16(sp)
a080117c:	03e00008 	jr	ra
a0801180:	27bd0020 	addiu	sp,sp,32
a0801184:	08200432 	j	a08010c8 <printf_c+0x28>
a0801188:	aca00000 	sw	zero,0(a1)

a080118c <printf_u>:
a080118c:	27bdffd0 	addiu	sp,sp,-48
a0801190:	3c02cccc 	lui	v0,0xcccc
a0801194:	afb20028 	sw	s2,40(sp)
a0801198:	afb10024 	sw	s1,36(sp)
a080119c:	afb00020 	sw	s0,32(sp)
a08011a0:	00809021 	move	s2,a0
a08011a4:	afbf002c 	sw	ra,44(sp)
a08011a8:	00a08821 	move	s1,a1
a08011ac:	a3a00010 	sb	zero,16(sp)
a08011b0:	3444cccd 	ori	a0,v0,0xcccd
a08011b4:	27b00010 	addiu	s0,sp,16
a08011b8:	00c40019 	multu	a2,a0
a08011bc:	26100001 	addiu	s0,s0,1
a08011c0:	00001810 	mfhi	v1
a08011c4:	000318c2 	srl	v1,v1,0x3
a08011c8:	00031080 	sll	v0,v1,0x2
a08011cc:	00431021 	addu	v0,v0,v1
a08011d0:	00021040 	sll	v0,v0,0x1
a08011d4:	00c21023 	subu	v0,a2,v0
a08011d8:	24420030 	addiu	v0,v0,48
a08011dc:	a2020000 	sb	v0,0(s0)
a08011e0:	1460fff5 	bnez	v1,a08011b8 <printf_u+0x2c>
a08011e4:	00603021 	move	a2,v1
a08011e8:	00023600 	sll	a2,v0,0x18
a08011ec:	08200481 	j	a0801204 <printf_u+0x78>
a08011f0:	00063603 	sra	a2,a2,0x18
a08011f4:	02402021 	move	a0,s2
a08011f8:	0c200428 	jal	a08010a0 <printf_c>
a08011fc:	02202821 	move	a1,s1
a0801200:	82060000 	lb	a2,0(s0)
a0801204:	14c0fffb 	bnez	a2,a08011f4 <printf_u+0x68>
a0801208:	2610ffff 	addiu	s0,s0,-1
a080120c:	8fbf002c 	lw	ra,44(sp)
a0801210:	8fb20028 	lw	s2,40(sp)
a0801214:	8fb10024 	lw	s1,36(sp)
a0801218:	8fb00020 	lw	s0,32(sp)
a080121c:	03e00008 	jr	ra
a0801220:	27bd0030 	addiu	sp,sp,48

a0801224 <printf>:
a0801224:	27bdffc8 	addiu	sp,sp,-56
a0801228:	afb3001c 	sw	s3,28(sp)
a080122c:	afb10014 	sw	s1,20(sp)
a0801230:	afbf0030 	sw	ra,48(sp)
a0801234:	afb7002c 	sw	s7,44(sp)
a0801238:	afb60028 	sw	s6,40(sp)
a080123c:	afb50024 	sw	s5,36(sp)
a0801240:	afb40020 	sw	s4,32(sp)
a0801244:	afb20018 	sw	s2,24(sp)
a0801248:	afb00010 	sw	s0,16(sp)
a080124c:	afa40038 	sw	a0,56(sp)
a0801250:	afa5003c 	sw	a1,60(sp)
a0801254:	afa70044 	sw	a3,68(sp)
a0801258:	afa60040 	sw	a2,64(sp)
a080125c:	00c08821 	move	s1,a2
a0801260:	80c60000 	lb	a2,0(a2)
a0801264:	10c0001c 	beqz	a2,a08012d8 <printf+0xb4>
a0801268:	27b30044 	addiu	s3,sp,68
a080126c:	27b5003c 	addiu	s5,sp,60
a0801270:	02a0b821 	move	s7,s5
a0801274:	02a0b021 	move	s6,s5
a0801278:	24020025 	li	v0,37
a080127c:	14c20028 	bne	a2,v0,a0801320 <printf+0xfc>
a0801280:	27a40038 	addiu	a0,sp,56
a0801284:	26310001 	addiu	s1,s1,1
a0801288:	92260000 	lbu	a2,0(s1)
a080128c:	24020073 	li	v0,115
a0801290:	00061e00 	sll	v1,a2,0x18
a0801294:	00031e03 	sra	v1,v1,0x18
a0801298:	10620052 	beq	v1,v0,a08013e4 <printf+0x1c0>
a080129c:	28620074 	slti	v0,v1,116
a08012a0:	10400018 	beqz	v0,a0801304 <printf+0xe0>
a08012a4:	24020075 	li	v0,117
a08012a8:	24020063 	li	v0,99
a08012ac:	1062005a 	beq	v1,v0,a0801418 <printf+0x1f4>
a08012b0:	28620064 	slti	v0,v1,100
a08012b4:	5040002b 	beqzl	v0,a0801364 <printf+0x140>
a08012b8:	24020064 	li	v0,100
a08012bc:	14600016 	bnez	v1,a0801318 <printf+0xf4>
a08012c0:	00063600 	sll	a2,a2,0x18
a08012c4:	2631ffff 	addiu	s1,s1,-1
a08012c8:	26310001 	addiu	s1,s1,1
a08012cc:	82260000 	lb	a2,0(s1)
a08012d0:	14c0ffea 	bnez	a2,a080127c <printf+0x58>
a08012d4:	24020025 	li	v0,37
a08012d8:	8fbf0030 	lw	ra,48(sp)
a08012dc:	8fb7002c 	lw	s7,44(sp)
a08012e0:	8fb60028 	lw	s6,40(sp)
a08012e4:	8fb50024 	lw	s5,36(sp)
a08012e8:	8fb40020 	lw	s4,32(sp)
a08012ec:	8fb3001c 	lw	s3,28(sp)
a08012f0:	8fb20018 	lw	s2,24(sp)
a08012f4:	8fb10014 	lw	s1,20(sp)
a08012f8:	8fb00010 	lw	s0,16(sp)
a08012fc:	03e00008 	jr	ra
a0801300:	27bd0038 	addiu	sp,sp,56
a0801304:	10620049 	beq	v1,v0,a080142c <printf+0x208>
a0801308:	24020078 	li	v0,120
a080130c:	50620020 	beql	v1,v0,a0801390 <printf+0x16c>
a0801310:	8e720000 	lw	s2,0(s3)
a0801314:	00063600 	sll	a2,a2,0x18
a0801318:	00063603 	sra	a2,a2,0x18
a080131c:	27a40038 	addiu	a0,sp,56
a0801320:	27a5003c 	addiu	a1,sp,60
a0801324:	0c200428 	jal	a08010a0 <printf_c>
a0801328:	26310001 	addiu	s1,s1,1
a080132c:	82260000 	lb	a2,0(s1)
a0801330:	14c0ffd2 	bnez	a2,a080127c <printf+0x58>
a0801334:	24020025 	li	v0,37
a0801338:	8fbf0030 	lw	ra,48(sp)
a080133c:	8fb7002c 	lw	s7,44(sp)
a0801340:	8fb60028 	lw	s6,40(sp)
a0801344:	8fb50024 	lw	s5,36(sp)
a0801348:	8fb40020 	lw	s4,32(sp)
a080134c:	8fb3001c 	lw	s3,28(sp)
a0801350:	8fb20018 	lw	s2,24(sp)
a0801354:	8fb10014 	lw	s1,20(sp)
a0801358:	8fb00010 	lw	s0,16(sp)
a080135c:	03e00008 	jr	ra
a0801360:	27bd0038 	addiu	sp,sp,56
a0801364:	1462ffec 	bne	v1,v0,a0801318 <printf+0xf4>
a0801368:	00063600 	sll	a2,a2,0x18
a080136c:	8e700000 	lw	s0,0(s3)
a0801370:	06000035 	bltz	s0,a0801448 <printf+0x224>
a0801374:	26730004 	addiu	s3,s3,4
a0801378:	02003021 	move	a2,s0
a080137c:	27a40038 	addiu	a0,sp,56
a0801380:	0c200463 	jal	a080118c <printf_u>
a0801384:	02e02821 	move	a1,s7
a0801388:	082004cb 	j	a080132c <printf+0x108>
a080138c:	26310001 	addiu	s1,s1,1
a0801390:	27b40038 	addiu	s4,sp,56
a0801394:	26730004 	addiu	s3,s3,4
a0801398:	24100007 	li	s0,7
a080139c:	00101080 	sll	v0,s0,0x2
a08013a0:	00521006 	srlv	v0,s2,v0
a08013a4:	3046000f 	andi	a2,v0,0xf
a08013a8:	24c40057 	addiu	a0,a2,87
a08013ac:	28c2000a 	slti	v0,a2,10
a08013b0:	24c30030 	addiu	v1,a2,48
a08013b4:	10400002 	beqz	v0,a08013c0 <printf+0x19c>
a08013b8:	00043600 	sll	a2,a0,0x18
a08013bc:	00033600 	sll	a2,v1,0x18
a08013c0:	2610ffff 	addiu	s0,s0,-1
a08013c4:	00063603 	sra	a2,a2,0x18
a08013c8:	02802021 	move	a0,s4
a08013cc:	0c200428 	jal	a08010a0 <printf_c>
a08013d0:	02c02821 	move	a1,s6
a08013d4:	0601fff2 	bgez	s0,a08013a0 <printf+0x17c>
a08013d8:	00101080 	sll	v0,s0,0x2
a08013dc:	082004cb 	j	a080132c <printf+0x108>
a08013e0:	26310001 	addiu	s1,s1,1
a08013e4:	8e620000 	lw	v0,0(s3)
a08013e8:	27b20038 	addiu	s2,sp,56
a08013ec:	26730004 	addiu	s3,s3,4
a08013f0:	08200501 	j	a0801404 <printf+0x1e0>
a08013f4:	00408021 	move	s0,v0
a08013f8:	02a02821 	move	a1,s5
a08013fc:	0c200428 	jal	a08010a0 <printf_c>
a0801400:	26100001 	addiu	s0,s0,1
a0801404:	82060000 	lb	a2,0(s0)
a0801408:	14c0fffb 	bnez	a2,a08013f8 <printf+0x1d4>
a080140c:	02402021 	move	a0,s2
a0801410:	082004cb 	j	a080132c <printf+0x108>
a0801414:	26310001 	addiu	s1,s1,1
a0801418:	82660000 	lb	a2,0(s3)
a080141c:	27a40038 	addiu	a0,sp,56
a0801420:	27a5003c 	addiu	a1,sp,60
a0801424:	082004c9 	j	a0801324 <printf+0x100>
a0801428:	26730004 	addiu	s3,s3,4
a080142c:	8e660000 	lw	a2,0(s3)
a0801430:	27a40038 	addiu	a0,sp,56
a0801434:	27a5003c 	addiu	a1,sp,60
a0801438:	0c200463 	jal	a080118c <printf_u>
a080143c:	26730004 	addiu	s3,s3,4
a0801440:	082004cb 	j	a080132c <printf+0x108>
a0801444:	26310001 	addiu	s1,s1,1
a0801448:	27a40038 	addiu	a0,sp,56
a080144c:	02e02821 	move	a1,s7
a0801450:	0c200428 	jal	a08010a0 <printf_c>
a0801454:	2406002d 	li	a2,45
a0801458:	27a40038 	addiu	a0,sp,56
a080145c:	02e02821 	move	a1,s7
a0801460:	0c200463 	jal	a080118c <printf_u>
a0801464:	00103023 	negu	a2,s0
a0801468:	082004cb 	j	a080132c <printf+0x108>
a080146c:	26310001 	addiu	s1,s1,1

a0801470 <myoutput>:
a0801470:	27bdffd8 	addiu	sp,sp,-40
a0801474:	24020001 	li	v0,1
a0801478:	afb40020 	sw	s4,32(sp)
a080147c:	afb20018 	sw	s2,24(sp)
a0801480:	afbf0024 	sw	ra,36(sp)
a0801484:	afb3001c 	sw	s3,28(sp)
a0801488:	afb10014 	sw	s1,20(sp)
a080148c:	afb00010 	sw	s0,16(sp)
a0801490:	00c09021 	move	s2,a2
a0801494:	10c20023 	beq	a2,v0,a0801524 <myoutput+0xb4>
a0801498:	00a0a021 	move	s4,a1
a080149c:	1a400019 	blez	s2,a0801504 <myoutput+0x94>
a08014a0:	00008821 	move	s1,zero
a08014a4:	08200531 	j	a08014c4 <myoutput+0x54>
a08014a8:	2413000a 	li	s3,10
a08014ac:	00032600 	sll	a0,v1,0x18
a08014b0:	0c2001c8 	jal	a0800720 <printcharc>
a08014b4:	00042603 	sra	a0,a0,0x18
a08014b8:	0232182a 	slt	v1,s1,s2
a08014bc:	10600012 	beqz	v1,a0801508 <myoutput+0x98>
a08014c0:	8fbf0024 	lw	ra,36(sp)
a08014c4:	02918021 	addu	s0,s4,s1
a08014c8:	92030000 	lbu	v1,0(s0)
a08014cc:	26310001 	addiu	s1,s1,1
a08014d0:	00031600 	sll	v0,v1,0x18
a08014d4:	00021603 	sra	v0,v0,0x18
a08014d8:	1453fff4 	bne	v0,s3,a08014ac <myoutput+0x3c>
a08014dc:	2404000d 	li	a0,13
a08014e0:	0c2001c8 	jal	a0800720 <printcharc>
a08014e4:	00000000 	nop
a08014e8:	92030000 	lbu	v1,0(s0)
a08014ec:	00032600 	sll	a0,v1,0x18
a08014f0:	0c2001c8 	jal	a0800720 <printcharc>
a08014f4:	00042603 	sra	a0,a0,0x18
a08014f8:	0232182a 	slt	v1,s1,s2
a08014fc:	1460fff2 	bnez	v1,a08014c8 <myoutput+0x58>
a0801500:	02918021 	addu	s0,s4,s1
a0801504:	8fbf0024 	lw	ra,36(sp)
a0801508:	8fb40020 	lw	s4,32(sp)
a080150c:	8fb3001c 	lw	s3,28(sp)
a0801510:	8fb20018 	lw	s2,24(sp)
a0801514:	8fb10014 	lw	s1,20(sp)
a0801518:	8fb00010 	lw	s0,16(sp)
a080151c:	03e00008 	jr	ra
a0801520:	27bd0028 	addiu	sp,sp,40
a0801524:	80a20000 	lb	v0,0(a1)
a0801528:	1440ffdc 	bnez	v0,a080149c <myoutput+0x2c>
a080152c:	8fbf0024 	lw	ra,36(sp)
a0801530:	8fb40020 	lw	s4,32(sp)
a0801534:	8fb3001c 	lw	s3,28(sp)
a0801538:	8fb20018 	lw	s2,24(sp)
a080153c:	8fb10014 	lw	s1,20(sp)
a0801540:	8fb00010 	lw	s0,16(sp)
a0801544:	03e00008 	jr	ra
a0801548:	27bd0028 	addiu	sp,sp,40

a080154c <printk>:
a080154c:	27bdffe8 	addiu	sp,sp,-24
a0801550:	00801021 	move	v0,a0
a0801554:	3c04a080 	lui	a0,0xa080
a0801558:	afa5001c 	sw	a1,28(sp)
a080155c:	afa60020 	sw	a2,32(sp)
a0801560:	afa70024 	sw	a3,36(sp)
a0801564:	24841470 	addiu	a0,a0,5232
a0801568:	27a7001c 	addiu	a3,sp,28
a080156c:	00403021 	move	a2,v0
a0801570:	afbf0010 	sw	ra,16(sp)
a0801574:	0c20062a 	jal	a08018a8 <lp_Print>
a0801578:	00002821 	move	a1,zero
a080157c:	8fbf0010 	lw	ra,16(sp)
a0801580:	03e00008 	jr	ra
a0801584:	27bd0018 	addiu	sp,sp,24

a0801588 <_panic>:
a0801588:	27bdffe8 	addiu	sp,sp,-24
a080158c:	00801021 	move	v0,a0
a0801590:	00a01821 	move	v1,a1
a0801594:	3c04a080 	lui	a0,0xa080
a0801598:	00402821 	move	a1,v0
a080159c:	afb00010 	sw	s0,16(sp)
a08015a0:	248434b8 	addiu	a0,a0,13496
a08015a4:	00c08021 	move	s0,a2
a08015a8:	00603021 	move	a2,v1
a08015ac:	afbf0014 	sw	ra,20(sp)
a08015b0:	0c200553 	jal	a080154c <printk>
a08015b4:	afa70024 	sw	a3,36(sp)
a08015b8:	3c04a080 	lui	a0,0xa080
a08015bc:	24841470 	addiu	a0,a0,5232
a08015c0:	02003021 	move	a2,s0
a08015c4:	27a70024 	addiu	a3,sp,36
a08015c8:	0c20062a 	jal	a08018a8 <lp_Print>
a08015cc:	00002821 	move	a1,zero
a08015d0:	3c04a080 	lui	a0,0xa080
a08015d4:	0c200553 	jal	a080154c <printk>
a08015d8:	248434cc 	addiu	a0,a0,13516
a08015dc:	08200577 	j	a08015dc <_panic+0x54>
a08015e0:	00000000 	nop
	...

a08015f0 <PrintNum>:
a08015f0:	8faa0010 	lw	t2,16(sp)
a08015f4:	8fad0014 	lw	t5,20(sp)
a08015f8:	8fac001c 	lw	t4,28(sp)
a08015fc:	83ab0018 	lb	t3,24(sp)
a0801600:	00804821 	move	t1,a0
a0801604:	00804021 	move	t0,a0
a0801608:	00a6001b 	divu	zero,a1,a2
a080160c:	14c00002 	bnez	a2,a0801618 <PrintNum+0x28>
a0801610:	00000000 	nop
a0801614:	0007000d 	break	0x7
a0801618:	00001810 	mfhi	v1
a080161c:	2862000a 	slti	v0,v1,10
a0801620:	14400004 	bnez	v0,a0801634 <PrintNum+0x44>
a0801624:	24640030 	addiu	a0,v1,48
a0801628:	24640037 	addiu	a0,v1,55
a080162c:	11800037 	beqz	t4,a080170c <PrintNum+0x11c>
a0801630:	24620057 	addiu	v0,v1,87
a0801634:	a1040000 	sb	a0,0(t0)
a0801638:	00a6001b 	divu	zero,a1,a2
a080163c:	14c00002 	bnez	a2,a0801648 <PrintNum+0x58>
a0801640:	00000000 	nop
a0801644:	0007000d 	break	0x7
a0801648:	00001012 	mflo	v0
a080164c:	00002812 	mflo	a1
a0801650:	1440ffed 	bnez	v0,a0801608 <PrintNum+0x18>
a0801654:	25080001 	addiu	t0,t0,1
a0801658:	10e00005 	beqz	a3,a0801670 <PrintNum+0x80>
a080165c:	01092823 	subu	a1,t0,t1
a0801660:	2402002d 	li	v0,45
a0801664:	a1020000 	sb	v0,0(t0)
a0801668:	25080001 	addiu	t0,t0,1
a080166c:	01092823 	subu	a1,t0,t1
a0801670:	0145102a 	slt	v0,t2,a1
a0801674:	54400001 	bnezl	v0,a080167c <PrintNum+0x8c>
a0801678:	00a05021 	move	t2,a1
a080167c:	55a00001 	bnezl	t5,a0801684 <PrintNum+0x94>
a0801680:	240b0020 	li	t3,32
a0801684:	0007102b 	sltu	v0,zero,a3
a0801688:	2da30001 	sltiu	v1,t5,1
a080168c:	00431024 	and	v0,v0,v1
a0801690:	10400005 	beqz	v0,a08016a8 <PrintNum+0xb8>
a0801694:	00aa102a 	slt	v0,a1,t2
a0801698:	24020030 	li	v0,48
a080169c:	5162001d 	beql	t3,v0,a0801714 <PrintNum+0x124>
a08016a0:	24a4ffff 	addiu	a0,a1,-1
a08016a4:	00aa102a 	slt	v0,a1,t2
a08016a8:	082005af 	j	a08016bc <PrintNum+0xcc>
a08016ac:	00a02021 	move	a0,a1
a08016b0:	24840001 	addiu	a0,a0,1
a08016b4:	008a102a 	slt	v0,a0,t2
a08016b8:	a06b0000 	sb	t3,0(v1)
a08016bc:	1440fffc 	bnez	v0,a08016b0 <PrintNum+0xc0>
a08016c0:	01241821 	addu	v1,t1,a0
a08016c4:	24a7ffff 	addiu	a3,a1,-1
a08016c8:	15a00002 	bnez	t5,a08016d4 <PrintNum+0xe4>
a08016cc:	00004021 	move	t0,zero
a08016d0:	2547ffff 	addiu	a3,t2,-1
a08016d4:	18e0000b 	blez	a3,a0801704 <PrintNum+0x114>
a08016d8:	00000000 	nop
a08016dc:	01282021 	addu	a0,t1,t0
a08016e0:	01272821 	addu	a1,t1,a3
a08016e4:	80860000 	lb	a2,0(a0)
a08016e8:	90a30000 	lbu	v1,0(a1)
a08016ec:	25080001 	addiu	t0,t0,1
a08016f0:	24e7ffff 	addiu	a3,a3,-1
a08016f4:	0107102a 	slt	v0,t0,a3
a08016f8:	a0830000 	sb	v1,0(a0)
a08016fc:	1440fff7 	bnez	v0,a08016dc <PrintNum+0xec>
a0801700:	a0a60000 	sb	a2,0(a1)
a0801704:	03e00008 	jr	ra
a0801708:	01401021 	move	v0,t2
a080170c:	0820058e 	j	a0801638 <PrintNum+0x48>
a0801710:	a1020000 	sb	v0,0(t0)
a0801714:	2546ffff 	addiu	a2,t2,-1
a0801718:	082005cb 	j	a080172c <PrintNum+0x13c>
a080171c:	0086102a 	slt	v0,a0,a2
a0801720:	24840001 	addiu	a0,a0,1
a0801724:	0086102a 	slt	v0,a0,a2
a0801728:	a06b0000 	sb	t3,0(v1)
a080172c:	1440fffc 	bnez	v0,a0801720 <PrintNum+0x130>
a0801730:	01241821 	addu	v1,t1,a0
a0801734:	012a1821 	addu	v1,t1,t2
a0801738:	2402002d 	li	v0,45
a080173c:	082005b1 	j	a08016c4 <PrintNum+0xd4>
a0801740:	a062ffff 	sb	v0,-1(v1)

a0801744 <PrintChar>:
a0801744:	00052e00 	sll	a1,a1,0x18
a0801748:	18c0001b 	blez	a2,a08017b8 <PrintChar+0x74>
a080174c:	00052e03 	sra	a1,a1,0x18
a0801750:	10e0000d 	beqz	a3,a0801788 <PrintChar+0x44>
a0801754:	24c8ffff 	addiu	t0,a2,-1
a0801758:	24070001 	li	a3,1
a080175c:	00e6102a 	slt	v0,a3,a2
a0801760:	10400007 	beqz	v0,a0801780 <PrintChar+0x3c>
a0801764:	a0850000 	sb	a1,0(a0)
a0801768:	24050020 	li	a1,32
a080176c:	00871821 	addu	v1,a0,a3
a0801770:	24e70001 	addiu	a3,a3,1
a0801774:	00e6102a 	slt	v0,a3,a2
a0801778:	1440fffc 	bnez	v0,a080176c <PrintChar+0x28>
a080177c:	a0650000 	sb	a1,0(v1)
a0801780:	03e00008 	jr	ra
a0801784:	00c01021 	move	v0,a2
a0801788:	19000007 	blez	t0,a08017a8 <PrintChar+0x64>
a080178c:	00003821 	move	a3,zero
a0801790:	24090020 	li	t1,32
a0801794:	00871821 	addu	v1,a0,a3
a0801798:	24e70001 	addiu	a3,a3,1
a080179c:	00e8102a 	slt	v0,a3,t0
a08017a0:	1440fffc 	bnez	v0,a0801794 <PrintChar+0x50>
a08017a4:	a0690000 	sb	t1,0(v1)
a08017a8:	00861021 	addu	v0,a0,a2
a08017ac:	a045ffff 	sb	a1,-1(v0)
a08017b0:	03e00008 	jr	ra
a08017b4:	00c01021 	move	v0,a2
a08017b8:	082005d4 	j	a0801750 <PrintChar+0xc>
a08017bc:	24060001 	li	a2,1

a08017c0 <PrintString>:
a08017c0:	80a20000 	lb	v0,0(a1)
a08017c4:	00a05021 	move	t2,a1
a08017c8:	00804821 	move	t1,a0
a08017cc:	00002821 	move	a1,zero
a08017d0:	082005f8 	j	a08017e0 <PrintString+0x20>
a08017d4:	25430001 	addiu	v1,t2,1
a08017d8:	24a50001 	addiu	a1,a1,1
a08017dc:	24630001 	addiu	v1,v1,1
a08017e0:	5440fffd 	bnezl	v0,a08017d8 <PrintString+0x18>
a08017e4:	90620000 	lbu	v0,0(v1)
a08017e8:	00c5102a 	slt	v0,a2,a1
a08017ec:	54400001 	bnezl	v0,a08017f4 <PrintString+0x34>
a08017f0:	00a03021 	move	a2,a1
a08017f4:	10e00015 	beqz	a3,a080184c <PrintString+0x8c>
a08017f8:	00c52023 	subu	a0,a2,a1
a08017fc:	18a00008 	blez	a1,a0801820 <PrintString+0x60>
a0801800:	00003821 	move	a3,zero
a0801804:	01471021 	addu	v0,t2,a3
a0801808:	90440000 	lbu	a0,0(v0)
a080180c:	01271821 	addu	v1,t1,a3
a0801810:	24e70001 	addiu	a3,a3,1
a0801814:	00e5102a 	slt	v0,a3,a1
a0801818:	1440fffa 	bnez	v0,a0801804 <PrintString+0x44>
a080181c:	a0640000 	sb	a0,0(v1)
a0801820:	00a6102a 	slt	v0,a1,a2
a0801824:	10400007 	beqz	v0,a0801844 <PrintString+0x84>
a0801828:	00a03821 	move	a3,a1
a080182c:	24040020 	li	a0,32
a0801830:	01271821 	addu	v1,t1,a3
a0801834:	24e70001 	addiu	a3,a3,1
a0801838:	00e6102a 	slt	v0,a3,a2
a080183c:	1440fffc 	bnez	v0,a0801830 <PrintString+0x70>
a0801840:	a0640000 	sb	a0,0(v1)
a0801844:	03e00008 	jr	ra
a0801848:	00c01021 	move	v0,a2
a080184c:	18800007 	blez	a0,a080186c <PrintString+0xac>
a0801850:	00003821 	move	a3,zero
a0801854:	24080020 	li	t0,32
a0801858:	01271821 	addu	v1,t1,a3
a080185c:	24e70001 	addiu	a3,a3,1
a0801860:	00e4102a 	slt	v0,a3,a0
a0801864:	1440fffc 	bnez	v0,a0801858 <PrintString+0x98>
a0801868:	a0680000 	sb	t0,0(v1)
a080186c:	0086102a 	slt	v0,a0,a2
a0801870:	1040fff4 	beqz	v0,a0801844 <PrintString+0x84>
a0801874:	00803821 	move	a3,a0
a0801878:	01461023 	subu	v0,t2,a2
a080187c:	00451021 	addu	v0,v0,a1
a0801880:	00822821 	addu	a1,a0,v0
a0801884:	90a20000 	lbu	v0,0(a1)
a0801888:	01271821 	addu	v1,t1,a3
a080188c:	24e70001 	addiu	a3,a3,1
a0801890:	00e6202a 	slt	a0,a3,a2
a0801894:	a0620000 	sb	v0,0(v1)
a0801898:	1480fffa 	bnez	a0,a0801884 <PrintString+0xc4>
a080189c:	24a50001 	addiu	a1,a1,1
a08018a0:	03e00008 	jr	ra
a08018a4:	00c01021 	move	v0,a2

a08018a8 <lp_Print>:
a08018a8:	27bdfbe0 	addiu	sp,sp,-1056
a08018ac:	afb30414 	sw	s3,1044(sp)
a08018b0:	afb20410 	sw	s2,1040(sp)
a08018b4:	afb1040c 	sw	s1,1036(sp)
a08018b8:	afb00408 	sw	s0,1032(sp)
a08018bc:	afbf0418 	sw	ra,1048(sp)
a08018c0:	00809021 	move	s2,a0
a08018c4:	00a09821 	move	s3,a1
a08018c8:	00c08021 	move	s0,a2
a08018cc:	00e08821 	move	s1,a3
a08018d0:	82030000 	lb	v1,0(s0)
a08018d4:	38620025 	xori	v0,v1,0x25
a08018d8:	0002102b 	sltu	v0,zero,v0
a08018dc:	0003182b 	sltu	v1,zero,v1
a08018e0:	00621824 	and	v1,v1,v0
a08018e4:	10600009 	beqz	v1,a080190c <lp_Print+0x64>
a08018e8:	02002821 	move	a1,s0
a08018ec:	26100001 	addiu	s0,s0,1
a08018f0:	82020000 	lb	v0,0(s0)
a08018f4:	38430025 	xori	v1,v0,0x25
a08018f8:	0003182b 	sltu	v1,zero,v1
a08018fc:	0002102b 	sltu	v0,zero,v0
a0801900:	00431024 	and	v0,v0,v1
a0801904:	5440fffa 	bnezl	v0,a08018f0 <lp_Print+0x48>
a0801908:	26100001 	addiu	s0,s0,1
a080190c:	02053023 	subu	a2,s0,a1
a0801910:	2cc203e9 	sltiu	v0,a2,1001
a0801914:	5040011c 	beqzl	v0,a0801d88 <lp_Print+0x4e0>
a0801918:	3c05a080 	lui	a1,0xa080
a080191c:	0240f809 	jalr	s2
a0801920:	02602021 	move	a0,s3
a0801924:	82020000 	lb	v0,0(s0)
a0801928:	1040010b 	beqz	v0,a0801d58 <lp_Print+0x4b0>
a080192c:	26100001 	addiu	s0,s0,1
a0801930:	92050000 	lbu	a1,0(s0)
a0801934:	2402006c 	li	v0,108
a0801938:	00051e00 	sll	v1,a1,0x18
a080193c:	00031e03 	sra	v1,v1,0x18
a0801940:	1062004c 	beq	v1,v0,a0801a74 <lp_Print+0x1cc>
a0801944:	00003021 	move	a2,zero
a0801948:	00051e00 	sll	v1,a1,0x18
a080194c:	00031e03 	sra	v1,v1,0x18
a0801950:	2402002d 	li	v0,45
a0801954:	00004021 	move	t0,zero
a0801958:	00004821 	move	t1,zero
a080195c:	10620041 	beq	v1,v0,a0801a64 <lp_Print+0x1bc>
a0801960:	240a0020 	li	t2,32
a0801964:	00051e00 	sll	v1,a1,0x18
a0801968:	00031e03 	sra	v1,v1,0x18
a080196c:	24020030 	li	v0,48
a0801970:	50620039 	beql	v1,v0,a0801a58 <lp_Print+0x1b0>
a0801974:	26100001 	addiu	s0,s0,1
a0801978:	24a2ffd0 	addiu	v0,a1,-48
a080197c:	304200ff 	andi	v0,v0,0xff
a0801980:	2c42000a 	sltiu	v0,v0,10
a0801984:	1040000f 	beqz	v0,a08019c4 <lp_Print+0x11c>
a0801988:	00051e00 	sll	v1,a1,0x18
a080198c:	26100001 	addiu	s0,s0,1
a0801990:	00051600 	sll	v0,a1,0x18
a0801994:	92050000 	lbu	a1,0(s0)
a0801998:	00081880 	sll	v1,t0,0x2
a080199c:	00681821 	addu	v1,v1,t0
a08019a0:	24a4ffd0 	addiu	a0,a1,-48
a08019a4:	00021603 	sra	v0,v0,0x18
a08019a8:	00031840 	sll	v1,v1,0x1
a08019ac:	308400ff 	andi	a0,a0,0xff
a08019b0:	00621821 	addu	v1,v1,v0
a08019b4:	2c84000a 	sltiu	a0,a0,10
a08019b8:	1480fff4 	bnez	a0,a080198c <lp_Print+0xe4>
a08019bc:	2468ffd0 	addiu	t0,v1,-48
a08019c0:	00051e00 	sll	v1,a1,0x18
a08019c4:	00031e03 	sra	v1,v1,0x18
a08019c8:	2402002e 	li	v0,46
a08019cc:	5062000d 	beql	v1,v0,a0801a04 <lp_Print+0x15c>
a08019d0:	26100001 	addiu	s0,s0,1
a08019d4:	00051e00 	sll	v1,a1,0x18
a08019d8:	00031e03 	sra	v1,v1,0x18
a08019dc:	2c620079 	sltiu	v0,v1,121
a08019e0:	10400017 	beqz	v0,a0801a40 <lp_Print+0x198>
a08019e4:	00003821 	move	a3,zero
a08019e8:	00031080 	sll	v0,v1,0x2
a08019ec:	3c03a080 	lui	v1,0xa080
a08019f0:	246331c0 	addiu	v1,v1,12736
a08019f4:	00431021 	addu	v0,v0,v1
a08019f8:	8c440000 	lw	a0,0(v0)
a08019fc:	00800008 	jr	a0
a0801a00:	00000000 	nop
a0801a04:	92050000 	lbu	a1,0(s0)
a0801a08:	24a2ffd0 	addiu	v0,a1,-48
a0801a0c:	304200ff 	andi	v0,v0,0xff
a0801a10:	2c42000a 	sltiu	v0,v0,10
a0801a14:	1040fff0 	beqz	v0,a08019d8 <lp_Print+0x130>
a0801a18:	00051e00 	sll	v1,a1,0x18
a0801a1c:	26100001 	addiu	s0,s0,1
a0801a20:	92050000 	lbu	a1,0(s0)
a0801a24:	24a2ffd0 	addiu	v0,a1,-48
a0801a28:	304200ff 	andi	v0,v0,0xff
a0801a2c:	2c42000a 	sltiu	v0,v0,10
a0801a30:	5440fff4 	bnezl	v0,a0801a04 <lp_Print+0x15c>
a0801a34:	26100001 	addiu	s0,s0,1
a0801a38:	08200676 	j	a08019d8 <lp_Print+0x130>
a0801a3c:	00051e00 	sll	v1,a1,0x18
a0801a40:	02602021 	move	a0,s3
a0801a44:	02002821 	move	a1,s0
a0801a48:	0240f809 	jalr	s2
a0801a4c:	24060001 	li	a2,1
a0801a50:	08200634 	j	a08018d0 <lp_Print+0x28>
a0801a54:	26100001 	addiu	s0,s0,1
a0801a58:	92050000 	lbu	a1,0(s0)
a0801a5c:	0820065e 	j	a0801978 <lp_Print+0xd0>
a0801a60:	240a0030 	li	t2,48
a0801a64:	26100001 	addiu	s0,s0,1
a0801a68:	92050000 	lbu	a1,0(s0)
a0801a6c:	08200659 	j	a0801964 <lp_Print+0xbc>
a0801a70:	24090001 	li	t1,1
a0801a74:	26100001 	addiu	s0,s0,1
a0801a78:	92050000 	lbu	a1,0(s0)
a0801a7c:	08200652 	j	a0801948 <lp_Print+0xa0>
a0801a80:	24060001 	li	a2,1
a0801a84:	26220003 	addiu	v0,s1,3
a0801a88:	2403fffc 	li	v1,-4
a0801a8c:	00438824 	and	s1,v0,v1
a0801a90:	8e250000 	lw	a1,0(s1)
a0801a94:	24060010 	li	a2,16
a0801a98:	27a40020 	addiu	a0,sp,32
a0801a9c:	00003821 	move	a3,zero
a0801aa0:	afa80010 	sw	t0,16(sp)
a0801aa4:	afa90014 	sw	t1,20(sp)
a0801aa8:	afaa0018 	sw	t2,24(sp)
a0801aac:	0c20057c 	jal	a08015f0 <PrintNum>
a0801ab0:	afa0001c 	sw	zero,28(sp)
a0801ab4:	00403021 	move	a2,v0
a0801ab8:	2c4203e9 	sltiu	v0,v0,1001
a0801abc:	104000b8 	beqz	v0,a0801da0 <lp_Print+0x4f8>
a0801ac0:	26310004 	addiu	s1,s1,4
a0801ac4:	02602021 	move	a0,s3
a0801ac8:	0240f809 	jalr	s2
a0801acc:	27a50020 	addiu	a1,sp,32
a0801ad0:	08200634 	j	a08018d0 <lp_Print+0x28>
a0801ad4:	26100001 	addiu	s0,s0,1
a0801ad8:	26220003 	addiu	v0,s1,3
a0801adc:	2403fffc 	li	v1,-4
a0801ae0:	00438824 	and	s1,v0,v1
a0801ae4:	8e250000 	lw	a1,0(s1)
a0801ae8:	2406000a 	li	a2,10
a0801aec:	27a40020 	addiu	a0,sp,32
a0801af0:	00003821 	move	a3,zero
a0801af4:	afa80010 	sw	t0,16(sp)
a0801af8:	afa90014 	sw	t1,20(sp)
a0801afc:	afaa0018 	sw	t2,24(sp)
a0801b00:	0c20057c 	jal	a08015f0 <PrintNum>
a0801b04:	afa0001c 	sw	zero,28(sp)
a0801b08:	00403021 	move	a2,v0
a0801b0c:	2c4203e9 	sltiu	v0,v0,1001
a0801b10:	1440ffec 	bnez	v0,a0801ac4 <lp_Print+0x21c>
a0801b14:	26310004 	addiu	s1,s1,4
a0801b18:	3c05a080 	lui	a1,0xa080
a0801b1c:	02602021 	move	a0,s3
a0801b20:	24a531a0 	addiu	a1,a1,12704
a0801b24:	0240f809 	jalr	s2
a0801b28:	24060018 	li	a2,24
a0801b2c:	082006cb 	j	a0801b2c <lp_Print+0x284>
a0801b30:	00000000 	nop
a0801b34:	26240003 	addiu	a0,s1,3
a0801b38:	2402fffc 	li	v0,-4
a0801b3c:	00828824 	and	s1,a0,v0
a0801b40:	8e250000 	lw	a1,0(s1)
a0801b44:	01003021 	move	a2,t0
a0801b48:	01203821 	move	a3,t1
a0801b4c:	0c2005f0 	jal	a08017c0 <PrintString>
a0801b50:	27a40020 	addiu	a0,sp,32
a0801b54:	00403021 	move	a2,v0
a0801b58:	2c4203e9 	sltiu	v0,v0,1001
a0801b5c:	1440ffd9 	bnez	v0,a0801ac4 <lp_Print+0x21c>
a0801b60:	26310004 	addiu	s1,s1,4
a0801b64:	3c05a080 	lui	a1,0xa080
a0801b68:	02602021 	move	a0,s3
a0801b6c:	24a531a0 	addiu	a1,a1,12704
a0801b70:	0240f809 	jalr	s2
a0801b74:	24060018 	li	a2,24
a0801b78:	082006de 	j	a0801b78 <lp_Print+0x2d0>
a0801b7c:	00000000 	nop
a0801b80:	26220003 	addiu	v0,s1,3
a0801b84:	2403fffc 	li	v1,-4
a0801b88:	00438824 	and	s1,v0,v1
a0801b8c:	8e250000 	lw	a1,0(s1)
a0801b90:	24060008 	li	a2,8
a0801b94:	27a40020 	addiu	a0,sp,32
a0801b98:	00003821 	move	a3,zero
a0801b9c:	afa80010 	sw	t0,16(sp)
a0801ba0:	afa90014 	sw	t1,20(sp)
a0801ba4:	afaa0018 	sw	t2,24(sp)
a0801ba8:	0c20057c 	jal	a08015f0 <PrintNum>
a0801bac:	afa0001c 	sw	zero,28(sp)
a0801bb0:	00403021 	move	a2,v0
a0801bb4:	2c4203e9 	sltiu	v0,v0,1001
a0801bb8:	1440ffc2 	bnez	v0,a0801ac4 <lp_Print+0x21c>
a0801bbc:	26310004 	addiu	s1,s1,4
a0801bc0:	3c05a080 	lui	a1,0xa080
a0801bc4:	02602021 	move	a0,s3
a0801bc8:	24a531a0 	addiu	a1,a1,12704
a0801bcc:	0240f809 	jalr	s2
a0801bd0:	24060018 	li	a2,24
a0801bd4:	082006f5 	j	a0801bd4 <lp_Print+0x32c>
a0801bd8:	00000000 	nop
a0801bdc:	26220003 	addiu	v0,s1,3
a0801be0:	2403fffc 	li	v1,-4
a0801be4:	00438824 	and	s1,v0,v1
a0801be8:	8e250000 	lw	a1,0(s1)
a0801bec:	04a00057 	bltz	a1,a0801d4c <lp_Print+0x4a4>
a0801bf0:	26310004 	addiu	s1,s1,4
a0801bf4:	2406000a 	li	a2,10
a0801bf8:	27a40020 	addiu	a0,sp,32
a0801bfc:	afa80010 	sw	t0,16(sp)
a0801c00:	afa90014 	sw	t1,20(sp)
a0801c04:	afaa0018 	sw	t2,24(sp)
a0801c08:	0c20057c 	jal	a08015f0 <PrintNum>
a0801c0c:	afa0001c 	sw	zero,28(sp)
a0801c10:	00403021 	move	a2,v0
a0801c14:	2c4203e9 	sltiu	v0,v0,1001
a0801c18:	1440ffab 	bnez	v0,a0801ac8 <lp_Print+0x220>
a0801c1c:	02602021 	move	a0,s3
a0801c20:	3c05a080 	lui	a1,0xa080
a0801c24:	24a531a0 	addiu	a1,a1,12704
a0801c28:	0240f809 	jalr	s2
a0801c2c:	24060018 	li	a2,24
a0801c30:	0820070c 	j	a0801c30 <lp_Print+0x388>
a0801c34:	00000000 	nop
a0801c38:	26240003 	addiu	a0,s1,3
a0801c3c:	2402fffc 	li	v0,-4
a0801c40:	00828824 	and	s1,a0,v0
a0801c44:	82250000 	lb	a1,0(s1)
a0801c48:	01003021 	move	a2,t0
a0801c4c:	01203821 	move	a3,t1
a0801c50:	0c2005d1 	jal	a0801744 <PrintChar>
a0801c54:	27a40020 	addiu	a0,sp,32
a0801c58:	00403021 	move	a2,v0
a0801c5c:	2c4203e9 	sltiu	v0,v0,1001
a0801c60:	1440ff98 	bnez	v0,a0801ac4 <lp_Print+0x21c>
a0801c64:	26310004 	addiu	s1,s1,4
a0801c68:	3c05a080 	lui	a1,0xa080
a0801c6c:	02602021 	move	a0,s3
a0801c70:	24a531a0 	addiu	a1,a1,12704
a0801c74:	0240f809 	jalr	s2
a0801c78:	24060018 	li	a2,24
a0801c7c:	0820071f 	j	a0801c7c <lp_Print+0x3d4>
a0801c80:	00000000 	nop
a0801c84:	26220003 	addiu	v0,s1,3
a0801c88:	2403fffc 	li	v1,-4
a0801c8c:	00438824 	and	s1,v0,v1
a0801c90:	8e250000 	lw	a1,0(s1)
a0801c94:	24060002 	li	a2,2
a0801c98:	27a40020 	addiu	a0,sp,32
a0801c9c:	00003821 	move	a3,zero
a0801ca0:	afa80010 	sw	t0,16(sp)
a0801ca4:	afa90014 	sw	t1,20(sp)
a0801ca8:	afaa0018 	sw	t2,24(sp)
a0801cac:	0c20057c 	jal	a08015f0 <PrintNum>
a0801cb0:	afa0001c 	sw	zero,28(sp)
a0801cb4:	00403021 	move	a2,v0
a0801cb8:	2c4203e9 	sltiu	v0,v0,1001
a0801cbc:	1440ff81 	bnez	v0,a0801ac4 <lp_Print+0x21c>
a0801cc0:	26310004 	addiu	s1,s1,4
a0801cc4:	3c05a080 	lui	a1,0xa080
a0801cc8:	02602021 	move	a0,s3
a0801ccc:	24a531a0 	addiu	a1,a1,12704
a0801cd0:	0240f809 	jalr	s2
a0801cd4:	24060018 	li	a2,24
a0801cd8:	08200736 	j	a0801cd8 <lp_Print+0x430>
a0801cdc:	00000000 	nop
a0801ce0:	26220003 	addiu	v0,s1,3
a0801ce4:	2403fffc 	li	v1,-4
a0801ce8:	00438824 	and	s1,v0,v1
a0801cec:	8e250000 	lw	a1,0(s1)
a0801cf0:	24060010 	li	a2,16
a0801cf4:	24020001 	li	v0,1
a0801cf8:	27a40020 	addiu	a0,sp,32
a0801cfc:	00003821 	move	a3,zero
a0801d00:	afa80010 	sw	t0,16(sp)
a0801d04:	afa90014 	sw	t1,20(sp)
a0801d08:	afaa0018 	sw	t2,24(sp)
a0801d0c:	0c20057c 	jal	a08015f0 <PrintNum>
a0801d10:	afa2001c 	sw	v0,28(sp)
a0801d14:	00403021 	move	a2,v0
a0801d18:	2c4203e9 	sltiu	v0,v0,1001
a0801d1c:	1440ff69 	bnez	v0,a0801ac4 <lp_Print+0x21c>
a0801d20:	26310004 	addiu	s1,s1,4
a0801d24:	3c05a080 	lui	a1,0xa080
a0801d28:	02602021 	move	a0,s3
a0801d2c:	24a531a0 	addiu	a1,a1,12704
a0801d30:	0240f809 	jalr	s2
a0801d34:	24060018 	li	a2,24
a0801d38:	0820074e 	j	a0801d38 <lp_Print+0x490>
a0801d3c:	00000000 	nop
a0801d40:	2610ffff 	addiu	s0,s0,-1
a0801d44:	08200634 	j	a08018d0 <lp_Print+0x28>
a0801d48:	26100001 	addiu	s0,s0,1
a0801d4c:	00052823 	negu	a1,a1
a0801d50:	082006fd 	j	a0801bf4 <lp_Print+0x34c>
a0801d54:	24070001 	li	a3,1
a0801d58:	3c05a080 	lui	a1,0xa080
a0801d5c:	02602021 	move	a0,s3
a0801d60:	24a531bc 	addiu	a1,a1,12732
a0801d64:	0240f809 	jalr	s2
a0801d68:	24060001 	li	a2,1
a0801d6c:	8fbf0418 	lw	ra,1048(sp)
a0801d70:	8fb30414 	lw	s3,1044(sp)
a0801d74:	8fb20410 	lw	s2,1040(sp)
a0801d78:	8fb1040c 	lw	s1,1036(sp)
a0801d7c:	8fb00408 	lw	s0,1032(sp)
a0801d80:	03e00008 	jr	ra
a0801d84:	27bd0420 	addiu	sp,sp,1056
a0801d88:	02602021 	move	a0,s3
a0801d8c:	24a531a0 	addiu	a1,a1,12704
a0801d90:	0240f809 	jalr	s2
a0801d94:	24060018 	li	a2,24
a0801d98:	08200766 	j	a0801d98 <lp_Print+0x4f0>
a0801d9c:	00000000 	nop
a0801da0:	3c05a080 	lui	a1,0xa080
a0801da4:	02602021 	move	a0,s3
a0801da8:	24a531a0 	addiu	a1,a1,12704
a0801dac:	0240f809 	jalr	s2
a0801db0:	24060018 	li	a2,24
a0801db4:	0820076d 	j	a0801db4 <lp_Print+0x50c>
a0801db8:	00000000 	nop
a0801dbc:	00000000 	nop

a0801dc0 <lock_init>:
a0801dc0:	27bdffe8 	addiu	sp,sp,-24
a0801dc4:	afb00010 	sw	s0,16(sp)
a0801dc8:	ac800000 	sw	zero,0(a0)
a0801dcc:	00808021 	move	s0,a0
a0801dd0:	afbf0014 	sw	ra,20(sp)
a0801dd4:	0c200b64 	jal	a0802d90 <queue_init>
a0801dd8:	24840004 	addiu	a0,a0,4
a0801ddc:	ae00000c 	sw	zero,12(s0)
a0801de0:	8fbf0014 	lw	ra,20(sp)
a0801de4:	8fb00010 	lw	s0,16(sp)
a0801de8:	03e00008 	jr	ra
a0801dec:	27bd0018 	addiu	sp,sp,24

a0801df0 <lock_acquire>:
a0801df0:	27bdffe0 	addiu	sp,sp,-32
a0801df4:	afb00010 	sw	s0,16(sp)
a0801df8:	afbf0018 	sw	ra,24(sp)
a0801dfc:	afb10014 	sw	s1,20(sp)
a0801e00:	0c2003d4 	jal	a0800f50 <enter_critical>
a0801e04:	00808021 	move	s0,a0
a0801e08:	3c02a080 	lui	v0,0xa080
a0801e0c:	8c43368c 	lw	v1,13964(v0)
a0801e10:	1060000e 	beqz	v1,a0801e4c <lock_acquire+0x5c>
a0801e14:	24030001 	li	v1,1
a0801e18:	8e020000 	lw	v0,0(s0)
a0801e1c:	1043002a 	beq	v0,v1,a0801ec8 <lock_acquire+0xd8>
a0801e20:	3c11a080 	lui	s1,0xa080
a0801e24:	ae030000 	sw	v1,0(s0)
a0801e28:	00008021 	move	s0,zero
a0801e2c:	0c2003e4 	jal	a0800f90 <leave_critical>
a0801e30:	00000000 	nop
a0801e34:	02001021 	move	v0,s0
a0801e38:	8fbf0018 	lw	ra,24(sp)
a0801e3c:	8fb10014 	lw	s1,20(sp)
a0801e40:	8fb00010 	lw	s0,16(sp)
a0801e44:	03e00008 	jr	ra
a0801e48:	27bd0020 	addiu	sp,sp,32
a0801e4c:	3c06a080 	lui	a2,0xa080
a0801e50:	24c633c8 	addiu	a2,a2,13256
a0801e54:	00002021 	move	a0,zero
a0801e58:	0c200a09 	jal	a0802824 <print_str>
a0801e5c:	00002821 	move	a1,zero
a0801e60:	3c06a080 	lui	a2,0xa080
a0801e64:	24c634d0 	addiu	a2,a2,13520
a0801e68:	00002021 	move	a0,zero
a0801e6c:	0c200a09 	jal	a0802824 <print_str>
a0801e70:	24050013 	li	a1,19
a0801e74:	3c06a080 	lui	a2,0xa080
a0801e78:	24c633f8 	addiu	a2,a2,13304
a0801e7c:	24040001 	li	a0,1
a0801e80:	0c200a09 	jal	a0802824 <print_str>
a0801e84:	00002821 	move	a1,zero
a0801e88:	3c06a080 	lui	a2,0xa080
a0801e8c:	24c634e0 	addiu	a2,a2,13536
a0801e90:	24040001 	li	a0,1
a0801e94:	0c200a09 	jal	a0802824 <print_str>
a0801e98:	24050006 	li	a1,6
a0801e9c:	3c06a080 	lui	a2,0xa080
a0801ea0:	24c6340c 	addiu	a2,a2,13324
a0801ea4:	24040002 	li	a0,2
a0801ea8:	0c200a09 	jal	a0802824 <print_str>
a0801eac:	00002821 	move	a1,zero
a0801eb0:	24040002 	li	a0,2
a0801eb4:	24050006 	li	a1,6
a0801eb8:	0c200aa6 	jal	a0802a98 <print_int>
a0801ebc:	2406002d 	li	a2,45
a0801ec0:	082007b0 	j	a0801ec0 <lock_acquire+0xd0>
a0801ec4:	00000000 	nop
a0801ec8:	8e223710 	lw	v0,14096(s1)
a0801ecc:	00401821 	move	v1,v0
a0801ed0:	1040000a 	beqz	v0,a0801efc <lock_acquire+0x10c>
a0801ed4:	ac500160 	sw	s0,352(v0)
a0801ed8:	082007bc 	j	a0801ef0 <lock_acquire+0x100>
a0801edc:	00402021 	move	a0,v0
a0801ee0:	1044000b 	beq	v0,a0,a0801f10 <lock_acquire+0x120>
a0801ee4:	00401821 	move	v1,v0
a0801ee8:	10400004 	beqz	v0,a0801efc <lock_acquire+0x10c>
a0801eec:	00000000 	nop
a0801ef0:	8c620160 	lw	v0,352(v1)
a0801ef4:	5440fffa 	bnezl	v0,a0801ee0 <lock_acquire+0xf0>
a0801ef8:	8c42000c 	lw	v0,12(v0)
a0801efc:	0c200942 	jal	a0802508 <block>
a0801f00:	26040004 	addiu	a0,s0,4
a0801f04:	8e223710 	lw	v0,14096(s1)
a0801f08:	0820078a 	j	a0801e28 <lock_acquire+0x38>
a0801f0c:	ac400160 	sw	zero,352(v0)
a0801f10:	24100001 	li	s0,1
a0801f14:	0820078b 	j	a0801e2c <lock_acquire+0x3c>
a0801f18:	ac400160 	sw	zero,352(v0)

a0801f1c <lock_release>:
a0801f1c:	27bdffe8 	addiu	sp,sp,-24
a0801f20:	afb00010 	sw	s0,16(sp)
a0801f24:	afbf0014 	sw	ra,20(sp)
a0801f28:	0c2003d4 	jal	a0800f50 <enter_critical>
a0801f2c:	00808021 	move	s0,a0
a0801f30:	3c02a080 	lui	v0,0xa080
a0801f34:	8c43368c 	lw	v1,13964(v0)
a0801f38:	1060002f 	beqz	v1,a0801ff8 <lock_release+0xdc>
a0801f3c:	3c02a080 	lui	v0,0xa080
a0801f40:	8c433710 	lw	v1,14096(v0)
a0801f44:	8c620140 	lw	v0,320(v1)
a0801f48:	14400020 	bnez	v0,a0801fcc <lock_release+0xb0>
a0801f4c:	26040004 	addiu	a0,s0,4
a0801f50:	3c06a080 	lui	a2,0xa080
a0801f54:	24c633c8 	addiu	a2,a2,13256
a0801f58:	00002021 	move	a0,zero
a0801f5c:	0c200a09 	jal	a0802824 <print_str>
a0801f60:	00002821 	move	a1,zero
a0801f64:	3c06a080 	lui	a2,0xa080
a0801f68:	24c634e8 	addiu	a2,a2,13544
a0801f6c:	00002021 	move	a0,zero
a0801f70:	0c200a09 	jal	a0802824 <print_str>
a0801f74:	24050013 	li	a1,19
a0801f78:	3c06a080 	lui	a2,0xa080
a0801f7c:	24c633f8 	addiu	a2,a2,13304
a0801f80:	24040001 	li	a0,1
a0801f84:	0c200a09 	jal	a0802824 <print_str>
a0801f88:	00002821 	move	a1,zero
a0801f8c:	3c06a080 	lui	a2,0xa080
a0801f90:	24c634e0 	addiu	a2,a2,13536
a0801f94:	24040001 	li	a0,1
a0801f98:	0c200a09 	jal	a0802824 <print_str>
a0801f9c:	24050006 	li	a1,6
a0801fa0:	3c06a080 	lui	a2,0xa080
a0801fa4:	24c6340c 	addiu	a2,a2,13324
a0801fa8:	24040002 	li	a0,2
a0801fac:	0c200a09 	jal	a0802824 <print_str>
a0801fb0:	00002821 	move	a1,zero
a0801fb4:	24040002 	li	a0,2
a0801fb8:	24050006 	li	a1,6
a0801fbc:	0c200aa6 	jal	a0802a98 <print_int>
a0801fc0:	24060011 	li	a2,17
a0801fc4:	082007f1 	j	a0801fc4 <lock_release+0xa8>
a0801fc8:	00000000 	nop
a0801fcc:	0c200b67 	jal	a0802d9c <dequeue>
a0801fd0:	00000000 	nop
a0801fd4:	50400003 	beqzl	v0,a0801fe4 <lock_release+0xc8>
a0801fd8:	ae000000 	sw	zero,0(s0)
a0801fdc:	0c200970 	jal	a08025c0 <unblock>
a0801fe0:	00402021 	move	a0,v0
a0801fe4:	ae00000c 	sw	zero,12(s0)
a0801fe8:	8fbf0014 	lw	ra,20(sp)
a0801fec:	8fb00010 	lw	s0,16(sp)
a0801ff0:	082003e4 	j	a0800f90 <leave_critical>
a0801ff4:	27bd0018 	addiu	sp,sp,24
a0801ff8:	3c06a080 	lui	a2,0xa080
a0801ffc:	24c633c8 	addiu	a2,a2,13256
a0802000:	00002021 	move	a0,zero
a0802004:	0c200a09 	jal	a0802824 <print_str>
a0802008:	00002821 	move	a1,zero
a080200c:	3c06a080 	lui	a2,0xa080
a0802010:	24c634d0 	addiu	a2,a2,13520
a0802014:	00002021 	move	a0,zero
a0802018:	0c200a09 	jal	a0802824 <print_str>
a080201c:	24050013 	li	a1,19
a0802020:	3c06a080 	lui	a2,0xa080
a0802024:	24c633f8 	addiu	a2,a2,13304
a0802028:	24040001 	li	a0,1
a080202c:	0c200a09 	jal	a0802824 <print_str>
a0802030:	00002821 	move	a1,zero
a0802034:	3c06a080 	lui	a2,0xa080
a0802038:	24c634e0 	addiu	a2,a2,13536
a080203c:	24040001 	li	a0,1
a0802040:	0c200a09 	jal	a0802824 <print_str>
a0802044:	24050006 	li	a1,6
a0802048:	3c06a080 	lui	a2,0xa080
a080204c:	24c6340c 	addiu	a2,a2,13324
a0802050:	24040002 	li	a0,2
a0802054:	0c200a09 	jal	a0802824 <print_str>
a0802058:	00002821 	move	a1,zero
a080205c:	24040002 	li	a0,2
a0802060:	24050006 	li	a1,6
a0802064:	0c200aa6 	jal	a0802a98 <print_int>
a0802068:	24060056 	li	a2,86
a080206c:	0820081b 	j	a080206c <lock_release+0x150>
a0802070:	00000000 	nop
	...

a0802080 <put_current_running>:
a0802080:	3c02a080 	lui	v0,0xa080
a0802084:	8c453710 	lw	a1,14096(v0)
a0802088:	24030001 	li	v1,1
a080208c:	3c04a080 	lui	a0,0xa080
a0802090:	aca30150 	sw	v1,336(a1)
a0802094:	08200b73 	j	a0802dcc <enqueue>
a0802098:	24843720 	addiu	a0,a0,14112

a080209c <lte_deadline>:
a080209c:	8c86015c 	lw	a2,348(a0)
a08020a0:	8ca3015c 	lw	v1,348(a1)
a08020a4:	0066102b 	sltu	v0,v1,a2
a08020a8:	14400004 	bnez	v0,a08020bc <lte_deadline+0x20>
a08020ac:	00003821 	move	a3,zero
a08020b0:	50c30004 	beql	a2,v1,a08020c4 <lte_deadline+0x28>
a08020b4:	8c830158 	lw	v1,344(a0)
a08020b8:	24070001 	li	a3,1
a08020bc:	03e00008 	jr	ra
a08020c0:	00e01021 	move	v0,a3
a08020c4:	8ca20158 	lw	v0,344(a1)
a08020c8:	0043102b 	sltu	v0,v0,v1
a08020cc:	5040fffb 	beqzl	v0,a08020bc <lte_deadline+0x20>
a08020d0:	24070001 	li	a3,1
a08020d4:	0820082f 	j	a08020bc <lte_deadline+0x20>
a08020d8:	00000000 	nop

a08020dc <do_gettimeofday>:
a08020dc:	3c04a080 	lui	a0,0xa080
a08020e0:	8c823718 	lw	v0,14104(a0)
a08020e4:	8c83371c 	lw	v1,14108(a0)
a08020e8:	03e00008 	jr	ra
a08020ec:	00000000 	nop

a08020f0 <get_timer>:
a08020f0:	08200837 	j	a08020dc <do_gettimeofday>
a08020f4:	00000000 	nop

a08020f8 <check_sleeping>:
a08020f8:	27bdffd8 	addiu	sp,sp,-40
a08020fc:	afb00010 	sw	s0,16(sp)
a0802100:	3c10a080 	lui	s0,0xa080
a0802104:	26043728 	addiu	a0,s0,14120
a0802108:	afb10014 	sw	s1,20(sp)
a080210c:	afbf0020 	sw	ra,32(sp)
a0802110:	afb3001c 	sw	s3,28(sp)
a0802114:	afb20018 	sw	s2,24(sp)
a0802118:	0c200b7e 	jal	a0802df8 <peek>
a080211c:	26103728 	addiu	s0,s0,14120
a0802120:	00408821 	move	s1,v0
a0802124:	00501026 	xor	v0,v0,s0
a0802128:	0002102b 	sltu	v0,zero,v0
a080212c:	0011182b 	sltu	v1,zero,s1
a0802130:	00431024 	and	v0,v0,v1
a0802134:	10400027 	beqz	v0,a08021d4 <check_sleeping+0xdc>
a0802138:	24130001 	li	s3,1
a080213c:	08200866 	j	a0802198 <check_sleeping+0xa0>
a0802140:	3c12a080 	lui	s2,0xa080
a0802144:	02202821 	move	a1,s1
a0802148:	14670005 	bne	v1,a3,a0802160 <check_sleeping+0x68>
a080214c:	26443720 	addiu	a0,s2,14112
a0802150:	8e220158 	lw	v0,344(s1)
a0802154:	00c2102b 	sltu	v0,a2,v0
a0802158:	54400018 	bnezl	v0,a08021bc <check_sleeping+0xc4>
a080215c:	8e310004 	lw	s1,4(s1)
a0802160:	8d060000 	lw	a2,0(t0)
a0802164:	8d030004 	lw	v1,4(t0)
a0802168:	ae330150 	sw	s3,336(s1)
a080216c:	8e310004 	lw	s1,4(s1)
a0802170:	acc30004 	sw	v1,4(a2)
a0802174:	8d020004 	lw	v0,4(t0)
a0802178:	0c200b73 	jal	a0802dcc <enqueue>
a080217c:	ac460000 	sw	a2,0(v0)
a0802180:	02301026 	xor	v0,s1,s0
a0802184:	0011182b 	sltu	v1,zero,s1
a0802188:	0002102b 	sltu	v0,zero,v0
a080218c:	00431024 	and	v0,v0,v1
a0802190:	10400011 	beqz	v0,a08021d8 <check_sleeping+0xe0>
a0802194:	8fbf0020 	lw	ra,32(sp)
a0802198:	0c20083c 	jal	a08020f0 <get_timer>
a080219c:	00000000 	nop
a08021a0:	00603821 	move	a3,v1
a08021a4:	8e23015c 	lw	v1,348(s1)
a08021a8:	00403021 	move	a2,v0
a08021ac:	00e3102b 	sltu	v0,a3,v1
a08021b0:	1040ffe4 	beqz	v0,a0802144 <check_sleeping+0x4c>
a08021b4:	02204021 	move	t0,s1
a08021b8:	8e310004 	lw	s1,4(s1)
a08021bc:	02301026 	xor	v0,s1,s0
a08021c0:	0011182b 	sltu	v1,zero,s1
a08021c4:	0002102b 	sltu	v0,zero,v0
a08021c8:	00431024 	and	v0,v0,v1
a08021cc:	1440fff2 	bnez	v0,a0802198 <check_sleeping+0xa0>
a08021d0:	00000000 	nop
a08021d4:	8fbf0020 	lw	ra,32(sp)
a08021d8:	8fb3001c 	lw	s3,28(sp)
a08021dc:	8fb20018 	lw	s2,24(sp)
a08021e0:	8fb10014 	lw	s1,20(sp)
a08021e4:	8fb00010 	lw	s0,16(sp)
a08021e8:	03e00008 	jr	ra
a08021ec:	27bd0028 	addiu	sp,sp,40

a08021f0 <scheduler>:
a08021f0:	27bdffe8 	addiu	sp,sp,-24
a08021f4:	afbf0014 	sw	ra,20(sp)
a08021f8:	afb00010 	sw	s0,16(sp)
a08021fc:	3c02a080 	lui	v0,0xa080
a0802200:	8c43368c 	lw	v1,13964(v0)
a0802204:	1460001f 	bnez	v1,a0802284 <scheduler+0x94>
a0802208:	3c06a080 	lui	a2,0xa080
a080220c:	24c633c8 	addiu	a2,a2,13256
a0802210:	00002021 	move	a0,zero
a0802214:	0c200a09 	jal	a0802824 <print_str>
a0802218:	00002821 	move	a1,zero
a080221c:	3c06a080 	lui	a2,0xa080
a0802220:	24c634d0 	addiu	a2,a2,13520
a0802224:	00002021 	move	a0,zero
a0802228:	0c200a09 	jal	a0802824 <print_str>
a080222c:	24050013 	li	a1,19
a0802230:	3c06a080 	lui	a2,0xa080
a0802234:	24c633f8 	addiu	a2,a2,13304
a0802238:	24040001 	li	a0,1
a080223c:	0c200a09 	jal	a0802824 <print_str>
a0802240:	00002821 	move	a1,zero
a0802244:	3c06a080 	lui	a2,0xa080
a0802248:	24c63508 	addiu	a2,a2,13576
a080224c:	24040001 	li	a0,1
a0802250:	0c200a09 	jal	a0802824 <print_str>
a0802254:	24050006 	li	a1,6
a0802258:	3c06a080 	lui	a2,0xa080
a080225c:	24c6340c 	addiu	a2,a2,13324
a0802260:	24040002 	li	a0,2
a0802264:	0c200a09 	jal	a0802824 <print_str>
a0802268:	00002821 	move	a1,zero
a080226c:	24040002 	li	a0,2
a0802270:	24050006 	li	a1,6
a0802274:	0c200aa6 	jal	a0802a98 <print_int>
a0802278:	2406003e 	li	a2,62
a080227c:	0820089f 	j	a080227c <scheduler+0x8c>
a0802280:	00000000 	nop
a0802284:	0c20083e 	jal	a08020f8 <check_sleeping>
a0802288:	3c10a080 	lui	s0,0xa080
a080228c:	082008ab 	j	a08022ac <scheduler+0xbc>
a0802290:	00000000 	nop
a0802294:	0c2003e4 	jal	a0800f90 <leave_critical>
a0802298:	00000000 	nop
a080229c:	0c2003d4 	jal	a0800f50 <enter_critical>
a08022a0:	00000000 	nop
a08022a4:	0c20083e 	jal	a08020f8 <check_sleeping>
a08022a8:	00000000 	nop
a08022ac:	0c200b7a 	jal	a0802de8 <is_empty>
a08022b0:	26043720 	addiu	a0,s0,14112
a08022b4:	1440fff7 	bnez	v0,a0802294 <scheduler+0xa4>
a08022b8:	00000000 	nop
a08022bc:	0c200b67 	jal	a0802d9c <dequeue>
a08022c0:	26043720 	addiu	a0,s0,14112
a08022c4:	3c03a080 	lui	v1,0xa080
a08022c8:	10400009 	beqz	v0,a08022f0 <scheduler+0x100>
a08022cc:	ac623710 	sw	v0,14096(v1)
a08022d0:	8c633710 	lw	v1,14096(v1)
a08022d4:	8fbf0014 	lw	ra,20(sp)
a08022d8:	8fb00010 	lw	s0,16(sp)
a08022dc:	8c620154 	lw	v0,340(v1)
a08022e0:	27bd0018 	addiu	sp,sp,24
a08022e4:	24420001 	addiu	v0,v0,1
a08022e8:	03e00008 	jr	ra
a08022ec:	ac620154 	sw	v0,340(v1)
a08022f0:	3c06a080 	lui	a2,0xa080
a08022f4:	24c633c8 	addiu	a2,a2,13256
a08022f8:	00002021 	move	a0,zero
a08022fc:	0c200a09 	jal	a0802824 <print_str>
a0802300:	00002821 	move	a1,zero
a0802304:	3c06a080 	lui	a2,0xa080
a0802308:	24c63514 	addiu	a2,a2,13588
a080230c:	00002021 	move	a0,zero
a0802310:	0c200a09 	jal	a0802824 <print_str>
a0802314:	24050013 	li	a1,19
a0802318:	3c06a080 	lui	a2,0xa080
a080231c:	24c633f8 	addiu	a2,a2,13304
a0802320:	24040001 	li	a0,1
a0802324:	0c200a09 	jal	a0802824 <print_str>
a0802328:	00002821 	move	a1,zero
a080232c:	3c06a080 	lui	a2,0xa080
a0802330:	24c63508 	addiu	a2,a2,13576
a0802334:	24040001 	li	a0,1
a0802338:	0c200a09 	jal	a0802824 <print_str>
a080233c:	24050006 	li	a1,6
a0802340:	3c06a080 	lui	a2,0xa080
a0802344:	24c6340c 	addiu	a2,a2,13324
a0802348:	24040002 	li	a0,2
a080234c:	0c200a09 	jal	a0802824 <print_str>
a0802350:	00002821 	move	a1,zero
a0802354:	24040002 	li	a0,2
a0802358:	24050006 	li	a1,6
a080235c:	0c200aa6 	jal	a0802a98 <print_int>
a0802360:	24060046 	li	a2,70
a0802364:	082008d9 	j	a0802364 <scheduler+0x174>
a0802368:	00000000 	nop

a080236c <do_sleep>:
a080236c:	27bdffe0 	addiu	sp,sp,-32
a0802370:	afb20018 	sw	s2,24(sp)
a0802374:	afbf001c 	sw	ra,28(sp)
a0802378:	afb10014 	sw	s1,20(sp)
a080237c:	afb00010 	sw	s0,16(sp)
a0802380:	3c02a080 	lui	v0,0xa080
a0802384:	8c43368c 	lw	v1,13964(v0)
a0802388:	10600020 	beqz	v1,a080240c <do_sleep+0xa0>
a080238c:	00809021 	move	s2,a0
a0802390:	3c06a080 	lui	a2,0xa080
a0802394:	24c633c8 	addiu	a2,a2,13256
a0802398:	00002021 	move	a0,zero
a080239c:	0c200a09 	jal	a0802824 <print_str>
a08023a0:	00002821 	move	a1,zero
a08023a4:	3c06a080 	lui	a2,0xa080
a08023a8:	24c6352c 	addiu	a2,a2,13612
a08023ac:	00002021 	move	a0,zero
a08023b0:	0c200a09 	jal	a0802824 <print_str>
a08023b4:	24050013 	li	a1,19
a08023b8:	3c06a080 	lui	a2,0xa080
a08023bc:	24c633f8 	addiu	a2,a2,13304
a08023c0:	24040001 	li	a0,1
a08023c4:	0c200a09 	jal	a0802824 <print_str>
a08023c8:	00002821 	move	a1,zero
a08023cc:	3c06a080 	lui	a2,0xa080
a08023d0:	24c63508 	addiu	a2,a2,13576
a08023d4:	24040001 	li	a0,1
a08023d8:	0c200a09 	jal	a0802824 <print_str>
a08023dc:	24050006 	li	a1,6
a08023e0:	3c06a080 	lui	a2,0xa080
a08023e4:	24c6340c 	addiu	a2,a2,13324
a08023e8:	24040002 	li	a0,2
a08023ec:	0c200a09 	jal	a0802824 <print_str>
a08023f0:	00002821 	move	a1,zero
a08023f4:	24040002 	li	a0,2
a08023f8:	24050006 	li	a1,6
a08023fc:	0c200aa6 	jal	a0802a98 <print_int>
a0802400:	2406005b 	li	a2,91
a0802404:	08200901 	j	a0802404 <do_sleep+0x98>
a0802408:	00000000 	nop
a080240c:	0c2003d4 	jal	a0800f50 <enter_critical>
a0802410:	3c10a080 	lui	s0,0xa080
a0802414:	0c200837 	jal	a08020dc <do_gettimeofday>
a0802418:	8e113710 	lw	s1,14096(s0)
a080241c:	000226c2 	srl	a0,v0,0x1b
a0802420:	00033940 	sll	a3,v1,0x5
a0802424:	00023140 	sll	a2,v0,0x5
a0802428:	00e43825 	or	a3,a3,a0
a080242c:	00c2282b 	sltu	a1,a2,v0
a0802430:	00e33823 	subu	a3,a3,v1
a0802434:	00c23023 	subu	a2,a2,v0
a0802438:	00e53823 	subu	a3,a3,a1
a080243c:	00062782 	srl	a0,a2,0x1e
a0802440:	00073880 	sll	a3,a3,0x2
a0802444:	00063080 	sll	a2,a2,0x2
a0802448:	00c23021 	addu	a2,a2,v0
a080244c:	00e43825 	or	a3,a3,a0
a0802450:	00e33821 	addu	a3,a3,v1
a0802454:	00c2202b 	sltu	a0,a2,v0
a0802458:	00e43821 	addu	a3,a3,a0
a080245c:	00061742 	srl	v0,a2,0x1d
a0802460:	000738c0 	sll	a3,a3,0x3
a0802464:	000630c0 	sll	a2,a2,0x3
a0802468:	00d23021 	addu	a2,a2,s2
a080246c:	00124fc3 	sra	t1,s2,0x1f
a0802470:	8e053710 	lw	a1,14096(s0)
a0802474:	00e23825 	or	a3,a3,v0
a0802478:	00d2182b 	sltu	v1,a2,s2
a080247c:	00e93821 	addu	a3,a3,t1
a0802480:	00e33821 	addu	a3,a3,v1
a0802484:	24020004 	li	v0,4
a0802488:	3c04a080 	lui	a0,0xa080
a080248c:	ae260158 	sw	a2,344(s1)
a0802490:	ae27015c 	sw	a3,348(s1)
a0802494:	aca20150 	sw	v0,336(a1)
a0802498:	0c200b73 	jal	a0802dcc <enqueue>
a080249c:	24843728 	addiu	a0,a0,14120
a08024a0:	8fbf001c 	lw	ra,28(sp)
a08024a4:	8fb20018 	lw	s2,24(sp)
a08024a8:	8fb10014 	lw	s1,20(sp)
a08024ac:	8fb00010 	lw	s0,16(sp)
a08024b0:	082001d8 	j	a0800760 <scheduler_entry>
a08024b4:	27bd0020 	addiu	sp,sp,32

a08024b8 <do_yield>:
a08024b8:	27bdffe8 	addiu	sp,sp,-24
a08024bc:	afbf0010 	sw	ra,16(sp)
a08024c0:	0c2003d4 	jal	a0800f50 <enter_critical>
a08024c4:	00000000 	nop
a08024c8:	0c200820 	jal	a0802080 <put_current_running>
a08024cc:	00000000 	nop
a08024d0:	8fbf0010 	lw	ra,16(sp)
a08024d4:	082001d8 	j	a0800760 <scheduler_entry>
a08024d8:	27bd0018 	addiu	sp,sp,24

a08024dc <do_exit>:
a08024dc:	27bdffe8 	addiu	sp,sp,-24
a08024e0:	afbf0010 	sw	ra,16(sp)
a08024e4:	0c2003d4 	jal	a0800f50 <enter_critical>
a08024e8:	00000000 	nop
a08024ec:	3c02a080 	lui	v0,0xa080
a08024f0:	8c443710 	lw	a0,14096(v0)
a08024f4:	24030003 	li	v1,3
a08024f8:	8fbf0010 	lw	ra,16(sp)
a08024fc:	ac830150 	sw	v1,336(a0)
a0802500:	082001d8 	j	a0800760 <scheduler_entry>
a0802504:	27bd0018 	addiu	sp,sp,24

a0802508 <block>:
a0802508:	27bdffe8 	addiu	sp,sp,-24
a080250c:	afbf0010 	sw	ra,16(sp)
a0802510:	3c02a080 	lui	v0,0xa080
a0802514:	8c43368c 	lw	v1,13964(v0)
a0802518:	14600020 	bnez	v1,a080259c <block+0x94>
a080251c:	3c02a080 	lui	v0,0xa080
a0802520:	3c06a080 	lui	a2,0xa080
a0802524:	24c633c8 	addiu	a2,a2,13256
a0802528:	00002021 	move	a0,zero
a080252c:	0c200a09 	jal	a0802824 <print_str>
a0802530:	00002821 	move	a1,zero
a0802534:	3c06a080 	lui	a2,0xa080
a0802538:	24c634d0 	addiu	a2,a2,13520
a080253c:	00002021 	move	a0,zero
a0802540:	0c200a09 	jal	a0802824 <print_str>
a0802544:	24050013 	li	a1,19
a0802548:	3c06a080 	lui	a2,0xa080
a080254c:	24c633f8 	addiu	a2,a2,13304
a0802550:	24040001 	li	a0,1
a0802554:	0c200a09 	jal	a0802824 <print_str>
a0802558:	00002821 	move	a1,zero
a080255c:	3c06a080 	lui	a2,0xa080
a0802560:	24c63508 	addiu	a2,a2,13576
a0802564:	24040001 	li	a0,1
a0802568:	0c200a09 	jal	a0802824 <print_str>
a080256c:	24050006 	li	a1,6
a0802570:	3c06a080 	lui	a2,0xa080
a0802574:	24c6340c 	addiu	a2,a2,13324
a0802578:	24040002 	li	a0,2
a080257c:	0c200a09 	jal	a0802824 <print_str>
a0802580:	00002821 	move	a1,zero
a0802584:	24040002 	li	a0,2
a0802588:	24050006 	li	a1,6
a080258c:	0c200aa6 	jal	a0802a98 <print_int>
a0802590:	2406007b 	li	a2,123
a0802594:	08200965 	j	a0802594 <block+0x8c>
a0802598:	00000000 	nop
a080259c:	8c453710 	lw	a1,14096(v0)
a08025a0:	24020002 	li	v0,2
a08025a4:	0c200b73 	jal	a0802dcc <enqueue>
a08025a8:	aca20150 	sw	v0,336(a1)
a08025ac:	0c2001d8 	jal	a0800760 <scheduler_entry>
a08025b0:	00000000 	nop
a08025b4:	8fbf0010 	lw	ra,16(sp)
a08025b8:	082003d4 	j	a0800f50 <enter_critical>
a08025bc:	27bd0018 	addiu	sp,sp,24

a08025c0 <unblock>:
a08025c0:	27bdffe8 	addiu	sp,sp,-24
a08025c4:	afbf0010 	sw	ra,16(sp)
a08025c8:	3c02a080 	lui	v0,0xa080
a08025cc:	8c43368c 	lw	v1,13964(v0)
a08025d0:	14600020 	bnez	v1,a0802654 <unblock+0x94>
a08025d4:	00802821 	move	a1,a0
a08025d8:	3c06a080 	lui	a2,0xa080
a08025dc:	24c633c8 	addiu	a2,a2,13256
a08025e0:	00002021 	move	a0,zero
a08025e4:	0c200a09 	jal	a0802824 <print_str>
a08025e8:	00002821 	move	a1,zero
a08025ec:	3c06a080 	lui	a2,0xa080
a08025f0:	24c634d0 	addiu	a2,a2,13520
a08025f4:	00002021 	move	a0,zero
a08025f8:	0c200a09 	jal	a0802824 <print_str>
a08025fc:	24050013 	li	a1,19
a0802600:	3c06a080 	lui	a2,0xa080
a0802604:	24c633f8 	addiu	a2,a2,13304
a0802608:	24040001 	li	a0,1
a080260c:	0c200a09 	jal	a0802824 <print_str>
a0802610:	00002821 	move	a1,zero
a0802614:	3c06a080 	lui	a2,0xa080
a0802618:	24c63508 	addiu	a2,a2,13576
a080261c:	24040001 	li	a0,1
a0802620:	0c200a09 	jal	a0802824 <print_str>
a0802624:	24050006 	li	a1,6
a0802628:	3c06a080 	lui	a2,0xa080
a080262c:	24c6340c 	addiu	a2,a2,13324
a0802630:	24040002 	li	a0,2
a0802634:	0c200a09 	jal	a0802824 <print_str>
a0802638:	00002821 	move	a1,zero
a080263c:	24040002 	li	a0,2
a0802640:	24050006 	li	a1,6
a0802644:	0c200aa6 	jal	a0802a98 <print_int>
a0802648:	24060083 	li	a2,131
a080264c:	08200993 	j	a080264c <unblock+0x8c>
a0802650:	00000000 	nop
a0802654:	24020001 	li	v0,1
a0802658:	ac820150 	sw	v0,336(a0)
a080265c:	3c04a080 	lui	a0,0xa080
a0802660:	8fbf0010 	lw	ra,16(sp)
a0802664:	24843720 	addiu	a0,a0,14112
a0802668:	08200b73 	j	a0802dcc <enqueue>
a080266c:	27bd0018 	addiu	sp,sp,24

a0802670 <do_getpid>:
a0802670:	27bdffe8 	addiu	sp,sp,-24
a0802674:	afbf0014 	sw	ra,20(sp)
a0802678:	0c2003d4 	jal	a0800f50 <enter_critical>
a080267c:	afb00010 	sw	s0,16(sp)
a0802680:	3c02a080 	lui	v0,0xa080
a0802684:	8c433710 	lw	v1,14096(v0)
a0802688:	0c2003e4 	jal	a0800f90 <leave_critical>
a080268c:	8c700148 	lw	s0,328(v1)
a0802690:	8fbf0014 	lw	ra,20(sp)
a0802694:	02001021 	move	v0,s0
a0802698:	8fb00010 	lw	s0,16(sp)
a080269c:	03e00008 	jr	ra
a08026a0:	27bd0018 	addiu	sp,sp,24

a08026a4 <do_getpriority>:
a08026a4:	03e00008 	jr	ra
a08026a8:	00000000 	nop

a08026ac <do_setpriority>:
a08026ac:	03e00008 	jr	ra
a08026b0:	00000000 	nop
	...

a08026c0 <clock_thread>:
a08026c0:	27bdffe8 	addiu	sp,sp,-24
a08026c4:	afb00010 	sw	s0,16(sp)
a08026c8:	afbf0014 	sw	ra,20(sp)
a08026cc:	3c10a080 	lui	s0,0xa080
a08026d0:	0c200837 	jal	a08020dc <do_gettimeofday>
a08026d4:	00000000 	nop
a08026d8:	00403821 	move	a3,v0
a08026dc:	24040018 	li	a0,24
a08026e0:	24050032 	li	a1,50
a08026e4:	0c200489 	jal	a0801224 <printf>
a08026e8:	2606353c 	addiu	a2,s0,13628
a08026ec:	0c20092e 	jal	a08024b8 <do_yield>
a08026f0:	00000000 	nop
a08026f4:	082009b4 	j	a08026d0 <clock_thread+0x10>
a08026f8:	00000000 	nop
a08026fc:	00000000 	nop

a0802700 <ps_thread>:
a0802700:	27bdffe8 	addiu	sp,sp,-24
a0802704:	afbf0010 	sw	ra,16(sp)
a0802708:	0c200162 	jal	a0800588 <print_status>
a080270c:	00000000 	nop
a0802710:	0c20092e 	jal	a08024b8 <do_yield>
a0802714:	00000000 	nop
a0802718:	0c200162 	jal	a0800588 <print_status>
a080271c:	00000000 	nop
a0802720:	0c20092e 	jal	a08024b8 <do_yield>
a0802724:	00000000 	nop
a0802728:	082009c2 	j	a0802708 <ps_thread+0x8>
a080272c:	00000000 	nop

a0802730 <printstr>:
a0802730:	90850000 	lbu	a1,0(a0)
a0802734:	3c02bfe4 	lui	v0,0xbfe4
a0802738:	10a0000b 	beqz	a1,a0802768 <printstr+0x38>
a080273c:	34428000 	ori	v0,v0,0x8000
a0802740:	2406ffff 	li	a2,-1
a0802744:	2403270f 	li	v1,9999
a0802748:	2463fffc 	addiu	v1,v1,-4
a080274c:	5466ffff 	bnel	v1,a2,a080274c <printstr+0x1c>
a0802750:	2463fffc 	addiu	v1,v1,-4
a0802754:	a0450000 	sb	a1,0(v0)
a0802758:	24840001 	addiu	a0,a0,1
a080275c:	90850000 	lbu	a1,0(a0)
a0802760:	54a0fff9 	bnezl	a1,a0802748 <printstr+0x18>
a0802764:	2403270f 	li	v1,9999
a0802768:	03e00008 	jr	ra
a080276c:	00000000 	nop

a0802770 <print_color>:
a0802770:	27bdffe8 	addiu	sp,sp,-24
a0802774:	afb00010 	sw	s0,16(sp)
a0802778:	00808021 	move	s0,a0
a080277c:	afbf0014 	sw	ra,20(sp)
a0802780:	0c2009cc 	jal	a0802730 <printstr>
a0802784:	00a02021 	move	a0,a1
a0802788:	0c2009cc 	jal	a0802730 <printstr>
a080278c:	02002021 	move	a0,s0
a0802790:	3c04a080 	lui	a0,0xa080
a0802794:	8fbf0014 	lw	ra,20(sp)
a0802798:	8fb00010 	lw	s0,16(sp)
a080279c:	24843554 	addiu	a0,a0,13652
a08027a0:	082009cc 	j	a0802730 <printstr>
a08027a4:	27bd0018 	addiu	sp,sp,24

a08027a8 <delays>:
a08027a8:	24050005 	li	a1,5
a08027ac:	24040004 	li	a0,4
a08027b0:	24030074 	li	v1,116
a08027b4:	240200d6 	li	v0,214
a08027b8:	2442ffff 	addiu	v0,v0,-1
a08027bc:	304200ff 	andi	v0,v0,0xff
a08027c0:	1440fffe 	bnez	v0,a08027bc <delays+0x14>
a08027c4:	2442ffff 	addiu	v0,v0,-1
a08027c8:	2462ffff 	addiu	v0,v1,-1
a08027cc:	304300ff 	andi	v1,v0,0xff
a08027d0:	1460fff9 	bnez	v1,a08027b8 <delays+0x10>
a08027d4:	240200d6 	li	v0,214
a08027d8:	2482ffff 	addiu	v0,a0,-1
a08027dc:	304400ff 	andi	a0,v0,0xff
a08027e0:	5480fff4 	bnezl	a0,a08027b4 <delays+0xc>
a08027e4:	24030074 	li	v1,116
a08027e8:	24a2ffff 	addiu	v0,a1,-1
a08027ec:	304500ff 	andi	a1,v0,0xff
a08027f0:	54a0ffef 	bnezl	a1,a08027b0 <delays+0x8>
a08027f4:	24040004 	li	a0,4
a08027f8:	03e00008 	jr	ra
a08027fc:	00000000 	nop

a0802800 <strlen>:
a0802800:	80820000 	lb	v0,0(a0)
a0802804:	08200a05 	j	a0802814 <strlen+0x14>
a0802808:	00001821 	move	v1,zero
a080280c:	80820000 	lb	v0,0(a0)
a0802810:	24630001 	addiu	v1,v1,1
a0802814:	5440fffd 	bnezl	v0,a080280c <strlen+0xc>
a0802818:	24840001 	addiu	a0,a0,1
a080281c:	03e00008 	jr	ra
a0802820:	00601021 	move	v0,v1

a0802824 <print_str>:
a0802824:	27bdffd8 	addiu	sp,sp,-40
a0802828:	afb40020 	sw	s4,32(sp)
a080282c:	0080a021 	move	s4,a0
a0802830:	00c02021 	move	a0,a2
a0802834:	afb3001c 	sw	s3,28(sp)
a0802838:	afb20018 	sw	s2,24(sp)
a080283c:	afb10014 	sw	s1,20(sp)
a0802840:	afb00010 	sw	s0,16(sp)
a0802844:	afbf0024 	sw	ra,36(sp)
a0802848:	00c09821 	move	s3,a2
a080284c:	0c200a00 	jal	a0802800 <strlen>
a0802850:	00a09021 	move	s2,a1
a0802854:	00408821 	move	s1,v0
a0802858:	1840000a 	blez	v0,a0802884 <print_str+0x60>
a080285c:	00008021 	move	s0,zero
a0802860:	02701021 	addu	v0,s3,s0
a0802864:	80460000 	lb	a2,0(v0)
a0802868:	02502821 	addu	a1,s2,s0
a080286c:	02802021 	move	a0,s4
a0802870:	0c2001cb 	jal	a080072c <print_char>
a0802874:	26100001 	addiu	s0,s0,1
a0802878:	0211182a 	slt	v1,s0,s1
a080287c:	1460fff9 	bnez	v1,a0802864 <print_str+0x40>
a0802880:	02701021 	addu	v0,s3,s0
a0802884:	8fbf0024 	lw	ra,36(sp)
a0802888:	8fb40020 	lw	s4,32(sp)
a080288c:	8fb3001c 	lw	s3,28(sp)
a0802890:	8fb20018 	lw	s2,24(sp)
a0802894:	8fb10014 	lw	s1,20(sp)
a0802898:	8fb00010 	lw	s0,16(sp)
a080289c:	03e00008 	jr	ra
a08028a0:	27bd0028 	addiu	sp,sp,40

a08028a4 <atoi>:
a08028a4:	90850000 	lbu	a1,0(a0)
a08028a8:	00803021 	move	a2,a0
a08028ac:	24a2ffd0 	addiu	v0,a1,-48
a08028b0:	304200ff 	andi	v0,v0,0xff
a08028b4:	2c42000a 	sltiu	v0,v0,10
a08028b8:	1040000e 	beqz	v0,a08028f4 <atoi+0x50>
a08028bc:	00003821 	move	a3,zero
a08028c0:	24c60001 	addiu	a2,a2,1
a08028c4:	00051600 	sll	v0,a1,0x18
a08028c8:	90c50000 	lbu	a1,0(a2)
a08028cc:	00071880 	sll	v1,a3,0x2
a08028d0:	00671821 	addu	v1,v1,a3
a08028d4:	24a4ffd0 	addiu	a0,a1,-48
a08028d8:	00021603 	sra	v0,v0,0x18
a08028dc:	00031840 	sll	v1,v1,0x1
a08028e0:	308400ff 	andi	a0,a0,0xff
a08028e4:	00621821 	addu	v1,v1,v0
a08028e8:	2c84000a 	sltiu	a0,a0,10
a08028ec:	1480fff4 	bnez	a0,a08028c0 <atoi+0x1c>
a08028f0:	2467ffd0 	addiu	a3,v1,-48
a08028f4:	03e00008 	jr	ra
a08028f8:	00e01021 	move	v0,a3

a08028fc <reverse>:
a08028fc:	27bdffe8 	addiu	sp,sp,-24
a0802900:	afb00010 	sw	s0,16(sp)
a0802904:	afbf0014 	sw	ra,20(sp)
a0802908:	0c200a00 	jal	a0802800 <strlen>
a080290c:	00808021 	move	s0,a0
a0802910:	2447ffff 	addiu	a3,v0,-1
a0802914:	18e0000b 	blez	a3,a0802944 <reverse+0x48>
a0802918:	00004021 	move	t0,zero
a080291c:	02082021 	addu	a0,s0,t0
a0802920:	02072821 	addu	a1,s0,a3
a0802924:	80860000 	lb	a2,0(a0)
a0802928:	90a30000 	lbu	v1,0(a1)
a080292c:	25080001 	addiu	t0,t0,1
a0802930:	24e7ffff 	addiu	a3,a3,-1
a0802934:	0107102a 	slt	v0,t0,a3
a0802938:	a0830000 	sb	v1,0(a0)
a080293c:	1440fff7 	bnez	v0,a080291c <reverse+0x20>
a0802940:	a0a60000 	sb	a2,0(a1)
a0802944:	8fbf0014 	lw	ra,20(sp)
a0802948:	8fb00010 	lw	s0,16(sp)
a080294c:	03e00008 	jr	ra
a0802950:	27bd0018 	addiu	sp,sp,24

a0802954 <itohex>:
a0802954:	08200a5c 	j	a0802970 <itohex+0x1c>
a0802958:	00003021 	move	a2,zero
a080295c:	00041102 	srl	v0,a0,0x4
a0802960:	24c60001 	addiu	a2,a2,1
a0802964:	a0e90000 	sb	t1,0(a3)
a0802968:	1040000c 	beqz	v0,a080299c <itohex+0x48>
a080296c:	00402021 	move	a0,v0
a0802970:	3082000f 	andi	v0,a0,0xf
a0802974:	24490030 	addiu	t1,v0,48
a0802978:	24480057 	addiu	t0,v0,87
a080297c:	2842000a 	slti	v0,v0,10
a0802980:	1440fff6 	bnez	v0,a080295c <itohex+0x8>
a0802984:	00c53821 	addu	a3,a2,a1
a0802988:	00041102 	srl	v0,a0,0x4
a080298c:	24c60001 	addiu	a2,a2,1
a0802990:	a0e80000 	sb	t0,0(a3)
a0802994:	1440fff6 	bnez	v0,a0802970 <itohex+0x1c>
a0802998:	00402021 	move	a0,v0
a080299c:	00c51021 	addu	v0,a2,a1
a08029a0:	a0400000 	sb	zero,0(v0)
a08029a4:	08200a3f 	j	a08028fc <reverse>
a08029a8:	00a02021 	move	a0,a1

a08029ac <print_hex>:
a08029ac:	27bdffc8 	addiu	sp,sp,-56
a08029b0:	00c02021 	move	a0,a2
a08029b4:	afb40030 	sw	s4,48(sp)
a08029b8:	00a0a021 	move	s4,a1
a08029bc:	27a50010 	addiu	a1,sp,16
a08029c0:	afbf0034 	sw	ra,52(sp)
a08029c4:	afb3002c 	sw	s3,44(sp)
a08029c8:	afb10024 	sw	s1,36(sp)
a08029cc:	afb00020 	sw	s0,32(sp)
a08029d0:	0c200a55 	jal	a0802954 <itohex>
a08029d4:	afb20028 	sw	s2,40(sp)
a08029d8:	0c200a00 	jal	a0802800 <strlen>
a08029dc:	27a40010 	addiu	a0,sp,16
a08029e0:	00408821 	move	s1,v0
a08029e4:	00008021 	move	s0,zero
a08029e8:	1840000b 	blez	v0,a0802a18 <print_hex+0x6c>
a08029ec:	3c13a080 	lui	s3,0xa080
a08029f0:	27b20010 	addiu	s2,sp,16
a08029f4:	02501021 	addu	v0,s2,s0
a08029f8:	80460000 	lb	a2,0(v0)
a08029fc:	8e6438a0 	lw	a0,14496(s3)
a0802a00:	02902821 	addu	a1,s4,s0
a0802a04:	0c2001cb 	jal	a080072c <print_char>
a0802a08:	26100001 	addiu	s0,s0,1
a0802a0c:	0211182a 	slt	v1,s0,s1
a0802a10:	1460fff9 	bnez	v1,a08029f8 <print_hex+0x4c>
a0802a14:	02501021 	addu	v0,s2,s0
a0802a18:	8e6238a0 	lw	v0,14496(s3)
a0802a1c:	8fbf0034 	lw	ra,52(sp)
a0802a20:	8fb40030 	lw	s4,48(sp)
a0802a24:	24420001 	addiu	v0,v0,1
a0802a28:	ae6238a0 	sw	v0,14496(s3)
a0802a2c:	8fb20028 	lw	s2,40(sp)
a0802a30:	8fb3002c 	lw	s3,44(sp)
a0802a34:	8fb10024 	lw	s1,36(sp)
a0802a38:	8fb00020 	lw	s0,32(sp)
a0802a3c:	03e00008 	jr	ra
a0802a40:	27bd0038 	addiu	sp,sp,56

a0802a44 <itoa>:
a0802a44:	3c02cccc 	lui	v0,0xcccc
a0802a48:	00803021 	move	a2,a0
a0802a4c:	3448cccd 	ori	t0,v0,0xcccd
a0802a50:	00003821 	move	a3,zero
a0802a54:	00c80019 	multu	a2,t0
a0802a58:	00e52021 	addu	a0,a3,a1
a0802a5c:	24e70001 	addiu	a3,a3,1
a0802a60:	00001010 	mfhi	v0
a0802a64:	000210c2 	srl	v0,v0,0x3
a0802a68:	00021880 	sll	v1,v0,0x2
a0802a6c:	00621821 	addu	v1,v1,v0
a0802a70:	00031840 	sll	v1,v1,0x1
a0802a74:	00c31823 	subu	v1,a2,v1
a0802a78:	24630030 	addiu	v1,v1,48
a0802a7c:	a0830000 	sb	v1,0(a0)
a0802a80:	1440fff4 	bnez	v0,a0802a54 <itoa+0x10>
a0802a84:	00403021 	move	a2,v0
a0802a88:	00e51021 	addu	v0,a3,a1
a0802a8c:	a0400000 	sb	zero,0(v0)
a0802a90:	08200a3f 	j	a08028fc <reverse>
a0802a94:	00a02021 	move	a0,a1

a0802a98 <print_int>:
a0802a98:	27bdffc8 	addiu	sp,sp,-56
a0802a9c:	afb00020 	sw	s0,32(sp)
a0802aa0:	000687c2 	srl	s0,a2,0x1f
a0802aa4:	afb3002c 	sw	s3,44(sp)
a0802aa8:	afb10024 	sw	s1,36(sp)
a0802aac:	afbf0034 	sw	ra,52(sp)
a0802ab0:	afb40030 	sw	s4,48(sp)
a0802ab4:	afb20028 	sw	s2,40(sp)
a0802ab8:	00809821 	move	s3,a0
a0802abc:	12000002 	beqz	s0,a0802ac8 <print_int+0x30>
a0802ac0:	00a08821 	move	s1,a1
a0802ac4:	00063023 	negu	a2,a2
a0802ac8:	00c02021 	move	a0,a2
a0802acc:	0c200a91 	jal	a0802a44 <itoa>
a0802ad0:	27a50010 	addiu	a1,sp,16
a0802ad4:	0c200a00 	jal	a0802800 <strlen>
a0802ad8:	27a40010 	addiu	a0,sp,16
a0802adc:	16000019 	bnez	s0,a0802b44 <print_int+0xac>
a0802ae0:	00409021 	move	s2,v0
a0802ae4:	00008021 	move	s0,zero
a0802ae8:	1a40000b 	blez	s2,a0802b18 <print_int+0x80>
a0802aec:	3c14a080 	lui	s4,0xa080
a0802af0:	27b30010 	addiu	s3,sp,16
a0802af4:	02701021 	addu	v0,s3,s0
a0802af8:	80460000 	lb	a2,0(v0)
a0802afc:	8e8438a0 	lw	a0,14496(s4)
a0802b00:	02202821 	move	a1,s1
a0802b04:	0c2001cb 	jal	a080072c <print_char>
a0802b08:	26100001 	addiu	s0,s0,1
a0802b0c:	0212182a 	slt	v1,s0,s2
a0802b10:	1460fff8 	bnez	v1,a0802af4 <print_int+0x5c>
a0802b14:	26310001 	addiu	s1,s1,1
a0802b18:	8e8238a0 	lw	v0,14496(s4)
a0802b1c:	8fbf0034 	lw	ra,52(sp)
a0802b20:	8fb3002c 	lw	s3,44(sp)
a0802b24:	24420001 	addiu	v0,v0,1
a0802b28:	ae8238a0 	sw	v0,14496(s4)
a0802b2c:	8fb20028 	lw	s2,40(sp)
a0802b30:	8fb40030 	lw	s4,48(sp)
a0802b34:	8fb10024 	lw	s1,36(sp)
a0802b38:	8fb00020 	lw	s0,32(sp)
a0802b3c:	03e00008 	jr	ra
a0802b40:	27bd0038 	addiu	sp,sp,56
a0802b44:	02202821 	move	a1,s1
a0802b48:	02602021 	move	a0,s3
a0802b4c:	2406002d 	li	a2,45
a0802b50:	0c2001cb 	jal	a080072c <print_char>
a0802b54:	26310001 	addiu	s1,s1,1
a0802b58:	08200aba 	j	a0802ae8 <print_int+0x50>
a0802b5c:	00008021 	move	s0,zero

a0802b60 <print_location>:
a0802b60:	27bdffa0 	addiu	sp,sp,-96
a0802b64:	afb00050 	sw	s0,80(sp)
a0802b68:	00808021 	move	s0,a0
a0802b6c:	3c04a080 	lui	a0,0xa080
a0802b70:	2484355c 	addiu	a0,a0,13660
a0802b74:	afbf0058 	sw	ra,88(sp)
a0802b78:	afb10054 	sw	s1,84(sp)
a0802b7c:	0c2009cc 	jal	a0802730 <printstr>
a0802b80:	00a08821 	move	s1,a1
a0802b84:	27a50010 	addiu	a1,sp,16
a0802b88:	0c200a91 	jal	a0802a44 <itoa>
a0802b8c:	02002021 	move	a0,s0
a0802b90:	0c2009cc 	jal	a0802730 <printstr>
a0802b94:	27a40010 	addiu	a0,sp,16
a0802b98:	3c04a080 	lui	a0,0xa080
a0802b9c:	27b00030 	addiu	s0,sp,48
a0802ba0:	0c2009cc 	jal	a0802730 <printstr>
a0802ba4:	24843560 	addiu	a0,a0,13664
a0802ba8:	02002821 	move	a1,s0
a0802bac:	0c200a91 	jal	a0802a44 <itoa>
a0802bb0:	02202021 	move	a0,s1
a0802bb4:	0c2009cc 	jal	a0802730 <printstr>
a0802bb8:	02002021 	move	a0,s0
a0802bbc:	3c04a080 	lui	a0,0xa080
a0802bc0:	0c2009cc 	jal	a0802730 <printstr>
a0802bc4:	24843564 	addiu	a0,a0,13668
a0802bc8:	8fbf0058 	lw	ra,88(sp)
a0802bcc:	8fb10054 	lw	s1,84(sp)
a0802bd0:	8fb00050 	lw	s0,80(sp)
a0802bd4:	03e00008 	jr	ra
a0802bd8:	27bd0060 	addiu	sp,sp,96

a0802bdc <clear_screen>:
a0802bdc:	27bdffe0 	addiu	sp,sp,-32
a0802be0:	00a7102a 	slt	v0,a1,a3
a0802be4:	afb20018 	sw	s2,24(sp)
a0802be8:	afb00010 	sw	s0,16(sp)
a0802bec:	afbf001c 	sw	ra,28(sp)
a0802bf0:	afb10014 	sw	s1,20(sp)
a0802bf4:	00e09021 	move	s2,a3
a0802bf8:	1040000b 	beqz	v0,a0802c28 <clear_screen+0x4c>
a0802bfc:	00a08021 	move	s0,a1
a0802c00:	3c11a080 	lui	s1,0xa080
a0802c04:	02002021 	move	a0,s0
a0802c08:	0c200ad8 	jal	a0802b60 <print_location>
a0802c0c:	00002821 	move	a1,zero
a0802c10:	26100001 	addiu	s0,s0,1
a0802c14:	0c2009cc 	jal	a0802730 <printstr>
a0802c18:	26243568 	addiu	a0,s1,13672
a0802c1c:	0212102a 	slt	v0,s0,s2
a0802c20:	5440fff9 	bnezl	v0,a0802c08 <clear_screen+0x2c>
a0802c24:	02002021 	move	a0,s0
a0802c28:	8fbf001c 	lw	ra,28(sp)
a0802c2c:	8fb20018 	lw	s2,24(sp)
a0802c30:	8fb10014 	lw	s1,20(sp)
a0802c34:	8fb00010 	lw	s0,16(sp)
a0802c38:	03e00008 	jr	ra
a0802c3c:	27bd0020 	addiu	sp,sp,32

a0802c40 <same_string>:
a0802c40:	90870000 	lbu	a3,0(a0)
a0802c44:	00073600 	sll	a2,a3,0x18
a0802c48:	00063603 	sra	a2,a2,0x18
a0802c4c:	50c0000e 	beqzl	a2,a0802c88 <same_string+0x48>
a0802c50:	90a20000 	lbu	v0,0(a1)
a0802c54:	90a20000 	lbu	v0,0(a1)
a0802c58:	00021e00 	sll	v1,v0,0x18
a0802c5c:	00031e03 	sra	v1,v1,0x18
a0802c60:	5060000a 	beqzl	v1,a0802c8c <same_string+0x4c>
a0802c64:	00471026 	xor	v0,v0,a3
a0802c68:	14c3000c 	bne	a2,v1,a0802c9c <same_string+0x5c>
a0802c6c:	24840001 	addiu	a0,a0,1
a0802c70:	90870000 	lbu	a3,0(a0)
a0802c74:	00073600 	sll	a2,a3,0x18
a0802c78:	00063603 	sra	a2,a2,0x18
a0802c7c:	14c0fff5 	bnez	a2,a0802c54 <same_string+0x14>
a0802c80:	24a50001 	addiu	a1,a1,1
a0802c84:	90a20000 	lbu	v0,0(a1)
a0802c88:	00471026 	xor	v0,v0,a3
a0802c8c:	00021600 	sll	v0,v0,0x18
a0802c90:	00021603 	sra	v0,v0,0x18
a0802c94:	03e00008 	jr	ra
a0802c98:	2c420001 	sltiu	v0,v0,1
a0802c9c:	03e00008 	jr	ra
a0802ca0:	00001021 	move	v0,zero

a0802ca4 <bcopy>:
a0802ca4:	10c0000c 	beqz	a2,a0802cd8 <bcopy+0x34>
a0802ca8:	00804021 	move	t0,a0
a0802cac:	0085102b 	sltu	v0,a0,a1
a0802cb0:	1040000b 	beqz	v0,a0802ce0 <bcopy+0x3c>
a0802cb4:	24c7ffff 	addiu	a3,a2,-1
a0802cb8:	04e00012 	bltz	a3,a0802d04 <bcopy+0x60>
a0802cbc:	00000000 	nop
a0802cc0:	01071021 	addu	v0,t0,a3
a0802cc4:	90440000 	lbu	a0,0(v0)
a0802cc8:	00a71821 	addu	v1,a1,a3
a0802ccc:	24e7ffff 	addiu	a3,a3,-1
a0802cd0:	04e1fffb 	bgez	a3,a0802cc0 <bcopy+0x1c>
a0802cd4:	a0640000 	sb	a0,0(v1)
a0802cd8:	03e00008 	jr	ra
a0802cdc:	00000000 	nop
a0802ce0:	18c0fffd 	blez	a2,a0802cd8 <bcopy+0x34>
a0802ce4:	00003821 	move	a3,zero
a0802ce8:	01071021 	addu	v0,t0,a3
a0802cec:	90440000 	lbu	a0,0(v0)
a0802cf0:	00a71821 	addu	v1,a1,a3
a0802cf4:	24e70001 	addiu	a3,a3,1
a0802cf8:	00e6102a 	slt	v0,a3,a2
a0802cfc:	1440fffa 	bnez	v0,a0802ce8 <bcopy+0x44>
a0802d00:	a0640000 	sb	a0,0(v1)
a0802d04:	03e00008 	jr	ra
a0802d08:	00000000 	nop

a0802d0c <bzero>:
a0802d0c:	18a00006 	blez	a1,a0802d28 <bzero+0x1c>
a0802d10:	00003021 	move	a2,zero
a0802d14:	00861821 	addu	v1,a0,a2
a0802d18:	24c60001 	addiu	a2,a2,1
a0802d1c:	00c5102a 	slt	v0,a2,a1
a0802d20:	1440fffc 	bnez	v0,a0802d14 <bzero+0x8>
a0802d24:	a0600000 	sb	zero,0(v1)
a0802d28:	03e00008 	jr	ra
a0802d2c:	00000000 	nop

a0802d30 <srand>:
a0802d30:	3c02a080 	lui	v0,0xa080
a0802d34:	03e00008 	jr	ra
a0802d38:	ac4438a4 	sw	a0,14500(v0)

a0802d3c <rand_step>:
a0802d3c:	3c0341c6 	lui	v1,0x41c6
a0802d40:	34634e6d 	ori	v1,v1,0x4e6d
a0802d44:	00830018 	mult	a0,v1
a0802d48:	00001012 	mflo	v0
a0802d4c:	24423039 	addiu	v0,v0,12345
a0802d50:	03e00008 	jr	ra
a0802d54:	00021402 	srl	v0,v0,0x10

a0802d58 <rand>:
a0802d58:	27bdffe8 	addiu	sp,sp,-24
a0802d5c:	afb00010 	sw	s0,16(sp)
a0802d60:	3c10a080 	lui	s0,0xa080
a0802d64:	8e0438a4 	lw	a0,14500(s0)
a0802d68:	afbf0014 	sw	ra,20(sp)
a0802d6c:	0c200b4f 	jal	a0802d3c <rand_step>
a0802d70:	00000000 	nop
a0802d74:	ae0238a4 	sw	v0,14500(s0)
a0802d78:	8fbf0014 	lw	ra,20(sp)
a0802d7c:	8fb00010 	lw	s0,16(sp)
a0802d80:	03e00008 	jr	ra
a0802d84:	27bd0018 	addiu	sp,sp,24
	...

a0802d90 <queue_init>:
a0802d90:	ac840000 	sw	a0,0(a0)
a0802d94:	03e00008 	jr	ra
a0802d98:	ac840004 	sw	a0,4(a0)

a0802d9c <dequeue>:
a0802d9c:	8c850004 	lw	a1,4(a0)
a0802da0:	50a40008 	beql	a1,a0,a0802dc4 <dequeue+0x28>
a0802da4:	00002821 	move	a1,zero
a0802da8:	8ca20000 	lw	v0,0(a1)
a0802dac:	8ca30004 	lw	v1,4(a1)
a0802db0:	ac430004 	sw	v1,4(v0)
a0802db4:	8ca40004 	lw	a0,4(a1)
a0802db8:	ac820000 	sw	v0,0(a0)
a0802dbc:	03e00008 	jr	ra
a0802dc0:	00a01021 	move	v0,a1
a0802dc4:	03e00008 	jr	ra
a0802dc8:	00a01021 	move	v0,a1

a0802dcc <enqueue>:
a0802dcc:	8c830000 	lw	v1,0(a0)
a0802dd0:	aca40004 	sw	a0,4(a1)
a0802dd4:	ac650004 	sw	a1,4(v1)
a0802dd8:	8ca20004 	lw	v0,4(a1)
a0802ddc:	aca30000 	sw	v1,0(a1)
a0802de0:	03e00008 	jr	ra
a0802de4:	ac450000 	sw	a1,0(v0)

a0802de8 <is_empty>:
a0802de8:	8c820004 	lw	v0,4(a0)
a0802dec:	00441026 	xor	v0,v0,a0
a0802df0:	03e00008 	jr	ra
a0802df4:	2c420001 	sltiu	v0,v0,1

a0802df8 <peek>:
a0802df8:	8c830004 	lw	v1,4(a0)
a0802dfc:	10640002 	beq	v1,a0,a0802e08 <peek+0x10>
a0802e00:	00001021 	move	v0,zero
a0802e04:	00601021 	move	v0,v1
a0802e08:	03e00008 	jr	ra
a0802e0c:	00000000 	nop

a0802e10 <init_interrupts>:
a0802e10:	3c07a080 	lui	a3,0xa080
a0802e14:	27bdffe0 	addiu	sp,sp,-32
a0802e18:	24e63e78 	addiu	a2,a3,15992
a0802e1c:	3c02a080 	lui	v0,0xa080
a0802e20:	afbf0018 	sw	ra,24(sp)
a0802e24:	afb10014 	sw	s1,20(sp)
a0802e28:	afb00010 	sw	s0,16(sp)
a0802e2c:	244209c0 	addiu	v0,v0,2496
a0802e30:	00c02021 	move	a0,a2
a0802e34:	2403001f 	li	v1,31
a0802e38:	2463ffff 	addiu	v1,v1,-1
a0802e3c:	ac820000 	sw	v0,0(a0)
a0802e40:	0461fffd 	bgez	v1,a0802e38 <init_interrupts+0x28>
a0802e44:	24840004 	addiu	a0,a0,4
a0802e48:	3c03a080 	lui	v1,0xa080
a0802e4c:	24630b8c 	addiu	v1,v1,2956
a0802e50:	3c02a080 	lui	v0,0xa080
a0802e54:	3c11a080 	lui	s1,0xa080
a0802e58:	3c10a080 	lui	s0,0xa080
a0802e5c:	24420d34 	addiu	v0,v0,3380
a0802e60:	acc30020 	sw	v1,32(a2)
a0802e64:	26310970 	addiu	s1,s1,2416
a0802e68:	3c04bfc0 	lui	a0,0xbfc0
a0802e6c:	24050380 	li	a1,896
a0802e70:	261009a8 	addiu	s0,s0,2472
a0802e74:	ace23e78 	sw	v0,15992(a3)
a0802e78:	0c200b43 	jal	a0802d0c <bzero>
a0802e7c:	02118023 	subu	s0,s0,s1
a0802e80:	3c05bfc0 	lui	a1,0xbfc0
a0802e84:	02003021 	move	a2,s0
a0802e88:	02202021 	move	a0,s1
a0802e8c:	0c200b29 	jal	a0802ca4 <bcopy>
a0802e90:	34a50380 	ori	a1,a1,0x380
a0802e94:	3c048000 	lui	a0,0x8000
a0802e98:	0c200b43 	jal	a0802d0c <bzero>
a0802e9c:	24050180 	li	a1,384
a0802ea0:	3c058000 	lui	a1,0x8000
a0802ea4:	02003021 	move	a2,s0
a0802ea8:	02202021 	move	a0,s1
a0802eac:	0c200b29 	jal	a0802ca4 <bcopy>
a0802eb0:	34a50180 	ori	a1,a1,0x180
a0802eb4:	3c0408f0 	lui	a0,0x8f0
a0802eb8:	0c200257 	jal	a080095c <reset_timer>
a0802ebc:	3484d180 	ori	a0,a0,0xd180
a0802ec0:	0c2003ce 	jal	a0800f38 <get_cp0_status>
a0802ec4:	00000000 	nop
a0802ec8:	34428001 	ori	v0,v0,0x8001
a0802ecc:	3c041000 	lui	a0,0x1000
a0802ed0:	8fbf0018 	lw	ra,24(sp)
a0802ed4:	8fb10014 	lw	s1,20(sp)
a0802ed8:	8fb00010 	lw	s0,16(sp)
a0802edc:	00442025 	or	a0,v0,a0
a0802ee0:	082003d1 	j	a0800f44 <set_cp0_status>
a0802ee4:	27bd0020 	addiu	sp,sp,32

a0802ee8 <c_simple_handler>:
a0802ee8:	3c06a080 	lui	a2,0xa080
a0802eec:	24c635b8 	addiu	a2,a2,13752
a0802ef0:	24040006 	li	a0,6
a0802ef4:	08200489 	j	a0801224 <printf>
a0802ef8:	00002821 	move	a1,zero

a0802efc <system_call_helper>:
a0802efc:	27bdffd8 	addiu	sp,sp,-40
a0802f00:	afb10014 	sw	s1,20(sp)
a0802f04:	3c11a080 	lui	s1,0xa080
a0802f08:	8e223710 	lw	v0,14096(s1)
a0802f0c:	afb40020 	sw	s4,32(sp)
a0802f10:	afb3001c 	sw	s3,28(sp)
a0802f14:	afb20018 	sw	s2,24(sp)
a0802f18:	afb00010 	sw	s0,16(sp)
a0802f1c:	afbf0024 	sw	ra,36(sp)
a0802f20:	8c430140 	lw	v1,320(v0)
a0802f24:	00808021 	move	s0,a0
a0802f28:	00a09021 	move	s2,a1
a0802f2c:	00c09821 	move	s3,a2
a0802f30:	10600020 	beqz	v1,a0802fb4 <system_call_helper+0xb8>
a0802f34:	00e0a021 	move	s4,a3
a0802f38:	3c06a080 	lui	a2,0xa080
a0802f3c:	24c633c8 	addiu	a2,a2,13256
a0802f40:	00002021 	move	a0,zero
a0802f44:	0c200a09 	jal	a0802824 <print_str>
a0802f48:	00002821 	move	a1,zero
a0802f4c:	3c06a080 	lui	a2,0xa080
a0802f50:	24c635d0 	addiu	a2,a2,13776
a0802f54:	00002021 	move	a0,zero
a0802f58:	0c200a09 	jal	a0802824 <print_str>
a0802f5c:	24050013 	li	a1,19
a0802f60:	3c06a080 	lui	a2,0xa080
a0802f64:	24c633f8 	addiu	a2,a2,13304
a0802f68:	24040001 	li	a0,1
a0802f6c:	0c200a09 	jal	a0802824 <print_str>
a0802f70:	00002821 	move	a1,zero
a0802f74:	3c06a080 	lui	a2,0xa080
a0802f78:	24c63614 	addiu	a2,a2,13844
a0802f7c:	24040001 	li	a0,1
a0802f80:	0c200a09 	jal	a0802824 <print_str>
a0802f84:	24050006 	li	a1,6
a0802f88:	3c06a080 	lui	a2,0xa080
a0802f8c:	24c6340c 	addiu	a2,a2,13324
a0802f90:	24040002 	li	a0,2
a0802f94:	0c200a09 	jal	a0802824 <print_str>
a0802f98:	00002821 	move	a1,zero
a0802f9c:	24040002 	li	a0,2
a0802fa0:	24050006 	li	a1,6
a0802fa4:	0c200aa6 	jal	a0802a98 <print_int>
a0802fa8:	2406005e 	li	a2,94
a0802fac:	08200beb 	j	a0802fac <system_call_helper+0xb0>
a0802fb0:	00000000 	nop
a0802fb4:	0c2003d4 	jal	a0800f50 <enter_critical>
a0802fb8:	00000000 	nop
a0802fbc:	8e223710 	lw	v0,14096(s1)
a0802fc0:	8c430140 	lw	v1,320(v0)
a0802fc4:	24630001 	addiu	v1,v1,1
a0802fc8:	0c2003e4 	jal	a0800f90 <leave_critical>
a0802fcc:	ac430140 	sw	v1,320(v0)
a0802fd0:	2e020009 	sltiu	v0,s0,9
a0802fd4:	50400001 	beqzl	v0,a0802fdc <system_call_helper+0xe0>
a0802fd8:	24100001 	li	s0,1
a0802fdc:	3c02a080 	lui	v0,0xa080
a0802fe0:	00101880 	sll	v1,s0,0x2
a0802fe4:	244238b0 	addiu	v0,v0,14512
a0802fe8:	00621821 	addu	v1,v1,v0
a0802fec:	8c620000 	lw	v0,0(v1)
a0802ff0:	02402021 	move	a0,s2
a0802ff4:	02602821 	move	a1,s3
a0802ff8:	0040f809 	jalr	v0
a0802ffc:	02803021 	move	a2,s4
a0803000:	0c2003d4 	jal	a0800f50 <enter_critical>
a0803004:	00408021 	move	s0,v0
a0803008:	3c02a080 	lui	v0,0xa080
a080300c:	8c433710 	lw	v1,14096(v0)
a0803010:	8c640140 	lw	a0,320(v1)
a0803014:	8c620138 	lw	v0,312(v1)
a0803018:	ac7000ac 	sw	s0,172(v1)
a080301c:	2484ffff 	addiu	a0,a0,-1
a0803020:	24420004 	addiu	v0,v0,4
a0803024:	ac620138 	sw	v0,312(v1)
a0803028:	14800009 	bnez	a0,a0803050 <system_call_helper+0x154>
a080302c:	ac640140 	sw	a0,320(v1)
a0803030:	8fbf0024 	lw	ra,36(sp)
a0803034:	8fb40020 	lw	s4,32(sp)
a0803038:	8fb3001c 	lw	s3,28(sp)
a080303c:	8fb20018 	lw	s2,24(sp)
a0803040:	8fb10014 	lw	s1,20(sp)
a0803044:	8fb00010 	lw	s0,16(sp)
a0803048:	03e00008 	jr	ra
a080304c:	27bd0028 	addiu	sp,sp,40
a0803050:	3c06a080 	lui	a2,0xa080
a0803054:	24c633c8 	addiu	a2,a2,13256
a0803058:	00002021 	move	a0,zero
a080305c:	0c200a09 	jal	a0802824 <print_str>
a0803060:	00002821 	move	a1,zero
a0803064:	3c06a080 	lui	a2,0xa080
a0803068:	24c63620 	addiu	a2,a2,13856
a080306c:	00002021 	move	a0,zero
a0803070:	0c200a09 	jal	a0802824 <print_str>
a0803074:	24050013 	li	a1,19
a0803078:	3c06a080 	lui	a2,0xa080
a080307c:	24c633f8 	addiu	a2,a2,13304
a0803080:	24040001 	li	a0,1
a0803084:	0c200a09 	jal	a0802824 <print_str>
a0803088:	00002821 	move	a1,zero
a080308c:	3c06a080 	lui	a2,0xa080
a0803090:	24c63614 	addiu	a2,a2,13844
a0803094:	24040001 	li	a0,1
a0803098:	0c200a09 	jal	a0802824 <print_str>
a080309c:	24050006 	li	a1,6
a08030a0:	3c06a080 	lui	a2,0xa080
a08030a4:	24c6340c 	addiu	a2,a2,13324
a08030a8:	24040002 	li	a0,2
a08030ac:	0c200a09 	jal	a0802824 <print_str>
a08030b0:	00002821 	move	a1,zero
a08030b4:	24040002 	li	a0,2
a08030b8:	24050006 	li	a1,6
a08030bc:	0c200aa6 	jal	a0802a98 <print_int>
a08030c0:	24060076 	li	a2,118
a08030c4:	08200c31 	j	a08030c4 <system_call_helper+0x1c8>
a08030c8:	00000000 	nop

a08030cc <timer_irq>:
a08030cc:	27bdffe8 	addiu	sp,sp,-24
a08030d0:	afb00010 	sw	s0,16(sp)
a08030d4:	afbf0014 	sw	ra,20(sp)
a08030d8:	3c04a080 	lui	a0,0xa080
a08030dc:	3c10a080 	lui	s0,0xa080
a08030e0:	8c823718 	lw	v0,14104(a0)
a08030e4:	8e053710 	lw	a1,14096(s0)
a08030e8:	8c83371c 	lw	v1,14108(a0)
a08030ec:	24420001 	addiu	v0,v0,1
a08030f0:	8ca60140 	lw	a2,320(a1)
a08030f4:	2c470001 	sltiu	a3,v0,1
a08030f8:	00671821 	addu	v1,v1,a3
a08030fc:	ac823718 	sw	v0,14104(a0)
a0803100:	ac83371c 	sw	v1,14108(a0)
a0803104:	10c00004 	beqz	a2,a0803118 <timer_irq+0x4c>
a0803108:	8fbf0014 	lw	ra,20(sp)
a080310c:	8fb00010 	lw	s0,16(sp)
a0803110:	03e00008 	jr	ra
a0803114:	27bd0018 	addiu	sp,sp,24
a0803118:	0c2003d4 	jal	a0800f50 <enter_critical>
a080311c:	00000000 	nop
a0803120:	8e053710 	lw	a1,14096(s0)
a0803124:	24020001 	li	v0,1
a0803128:	3c04a080 	lui	a0,0xa080
a080312c:	8ca30140 	lw	v1,320(a1)
a0803130:	aca20150 	sw	v0,336(a1)
a0803134:	24843720 	addiu	a0,a0,14112
a0803138:	24630001 	addiu	v1,v1,1
a080313c:	0c200b73 	jal	a0802dcc <enqueue>
a0803140:	aca30140 	sw	v1,320(a1)
a0803144:	8e033710 	lw	v1,14096(s0)
a0803148:	8fbf0014 	lw	ra,20(sp)
a080314c:	8fb00010 	lw	s0,16(sp)
a0803150:	8c620140 	lw	v0,320(v1)
a0803154:	27bd0018 	addiu	sp,sp,24
a0803158:	2442ffff 	addiu	v0,v0,-1
a080315c:	082001d8 	j	a0800760 <scheduler_entry>
a0803160:	ac620140 	sw	v0,320(v1)
	...

a0803170 <invoke_syscall>:
a0803170:	afa50000 	sw	a1,0(sp)
a0803174:	afa60004 	sw	a2,4(sp)
a0803178:	afa70008 	sw	a3,8(sp)
a080317c:	00801020 	add	v0,a0,zero
a0803180:	00a02020 	add	a0,a1,zero
a0803184:	00c02820 	add	a1,a2,zero
a0803188:	00e03020 	add	a2,a3,zero
a080318c:	0000000c 	syscall
a0803190:	03e00008 	jr	ra
a0803194:	00000000 	nop
	...

a08031a0 <theFatalMsg>:
a08031a0:	61746166 7265206c 20726f72 6c206e69     fatal error in l
a08031b0:	72505f70 21746e69 00000000 00000000     p_Print!........
a08031c0:	a0801d40 a0801a40 a0801a40 a0801a40     @...@...@...@...
a08031d0:	a0801a40 a0801a40 a0801a40 a0801a40     @...@...@...@...
a08031e0:	a0801a40 a0801a40 a0801a40 a0801a40     @...@...@...@...
a08031f0:	a0801a40 a0801a40 a0801a40 a0801a40     @...@...@...@...
a0803200:	a0801a40 a0801a40 a0801a40 a0801a40     @...@...@...@...
a0803210:	a0801a40 a0801a40 a0801a40 a0801a40     @...@...@...@...
a0803220:	a0801a40 a0801a40 a0801a40 a0801a40     @...@...@...@...
a0803230:	a0801a40 a0801a40 a0801a40 a0801a40     @...@...@...@...
a0803240:	a0801a40 a0801a40 a0801a40 a0801a40     @...@...@...@...
a0803250:	a0801a40 a0801a40 a0801a40 a0801a40     @...@...@...@...
a0803260:	a0801a40 a0801a40 a0801a40 a0801a40     @...@...@...@...
a0803270:	a0801a40 a0801a40 a0801a40 a0801a40     @...@...@...@...
a0803280:	a0801a40 a0801a40 a0801a40 a0801a40     @...@...@...@...
a0803290:	a0801a40 a0801a40 a0801a40 a0801a40     @...@...@...@...
a08032a0:	a0801a40 a0801a40 a0801a40 a0801a40     @...@...@...@...
a08032b0:	a0801a40 a0801a40 a0801a40 a0801a40     @...@...@...@...
a08032c0:	a0801a40 a0801a40 a0801a40 a0801a40     @...@...@...@...
a08032d0:	a0801bdc a0801a40 a0801a40 a0801a40     ....@...@...@...
a08032e0:	a0801a40 a0801a40 a0801a40 a0801a40     @...@...@...@...
a08032f0:	a0801a40 a0801a40 a0801a40 a0801b80     @...@...@.......
a0803300:	a0801a40 a0801a40 a0801a40 a0801a40     @...@...@...@...
a0803310:	a0801a40 a0801ad8 a0801a40 a0801a40     @.......@...@...
a0803320:	a0801ce0 a0801a40 a0801a40 a0801a40     ....@...@...@...
a0803330:	a0801a40 a0801a40 a0801a40 a0801a40     @...@...@...@...
a0803340:	a0801a40 a0801a40 a0801c84 a0801c38     @...@.......8...
a0803350:	a0801bdc a0801a40 a0801a40 a0801a40     ....@...@...@...
a0803360:	a0801a40 a0801a40 a0801a40 a0801a40     @...@...@...@...
a0803370:	a0801a40 a0801a40 a0801a40 a0801b80     @...@...@.......
a0803380:	a0801a40 a0801a40 a0801a40 a0801b34     @...@...@...4...
a0803390:	a0801a40 a0801ad8 a0801a40 a0801a40     @.......@...@...
a08033a0:	a0801a84 00000000 00000000 00000000     ................
a08033b0:	a03f01fc 00000000 00000000 00000000     ..?.............
	...
